(dp1
S'output'
p2
S"<type 'exceptions.SyntaxError'> Field: unknown field type: int for default_target_size"
p3
sS'layer'
p4
S'/media/work/home/dev/python/asvpwapp/web2py/applications/asvpwapp/models/db.py'
p5
sS'code'
p6
S"# -*- coding: utf-8 -*-\n\n#########################################################################\n## This scaffolding model makes your app work on Google App Engine too\n## File is released under public domain and you can use without limitations\n#########################################################################\n\n## if SSL/HTTPS is properly configured and you want all HTTP requests to\n## be redirected to HTTPS, uncomment the line below:\n# request.requires_https()\n\nif not request.env.web2py_runtime_gae:\n    ## if NOT running on Google App Engine use SQLite or other DB\n    db = DAL('sqlite://storage.sqlite')\nelse:\n    ## connect to Google BigTable (optional 'google:datastore://namespace')\n    db = DAL('google:datastore')\n    ## store sessions and tickets there\n    session.connect(request, response, db = db)\n    ## or store session in Memcache, Redis, etc.\n    ## from gluon.contrib.memdb import MEMDB\n    ## from google.appengine.api.memcache import Client\n    ## session.connect(request, response, db = MEMDB(Client()))\n\n## by default give a view/generic.extension to all actions from localhost\n## none otherwise. a pattern can be 'controller/function.extension'\nresponse.generic_patterns = ['*'] if request.is_local else []\n## (optional) optimize handling of static files\n# response.optimize_css = 'concat,minify,inline'\n# response.optimize_js = 'concat,minify,inline'\n\n#########################################################################\n## Here is sample code if you need for\n## - email capabilities\n## - authentication (registration, login, logout, ... )\n## - authorization (role based authorization)\n## - services (xml, csv, json, xmlrpc, jsonrpc, amf, rss)\n## - old style crud actions\n## (more options discussed in gluon/tools.py)\n#########################################################################\n\nfrom gluon.tools import Auth, Crud, Service, PluginManager, prettydate\nauth = Auth(db)\ncrud, service, plugins = Crud(db), Service(), PluginManager()\n\n## create all tables needed by auth if not custom tables\nauth.define_tables(username=False, signature=False)\n\n## configure email\nmail=auth.settings.mailer\nmail.settings.server = 'logging' or 'smtp.gmail.com:587'\nmail.settings.sender = 'you@gmail.com'\nmail.settings.login = 'username:password'\n\n## configure auth policy\nauth.settings.registration_requires_verification = False\nauth.settings.registration_requires_approval = False\nauth.settings.reset_password_requires_verification = True\n\n## if you need to use OpenID, Facebook, MySpace, Twitter, Linkedin, etc.\n## register with janrain.com, write your domain:api_key in private/janrain.key\nfrom gluon.contrib.login_methods.rpx_account import use_janrain\nuse_janrain(auth,filename='private/janrain.key')\n\n#########################################################################\n## Define your tables below (or better in another model file) for example\n##\n## >>> db.define_table('mytable',Field('myfield','string'))\n##\n## Fields can be 'string','text','password','integer','double','boolean'\n##       'date','time','datetime','blob','upload', 'reference TABLENAME'\n## There is an implicit 'id integer autoincrement' field\n## Consult manual for more options, validators, etc.\n##\n## More API examples for controllers:\n##\n## >>> db.mytable.insert(myfield='value')\n## >>> rows=db(db.mytable.myfield=='value').select(db.mytable.ALL)\n## >>> for row in rows: print row.id, row.myfield\n#########################################################################\n\ndb.define_table('shooters',Field('first_name','string'),\n                           Field('last_name','string'))\ndb.define_table('weapon_types',Field('name','string'),\n                               Field('default_target_size','int'),\n                               Field('picture','blob'),\n                               Field('default_round_size','int'))\ndb.define_table('shooters_weapons',Field('shooter_id','int'),\n                                   Field('weapon_type_id','int'))\ndb.define_table('series',Field('shooter_id','int'),\n                         Field('timestamp','datetime'),\n                         Field('weapon_type_id','int'),\n                         Field('target_size','int'),\n                         Field('target_distance','int'),\n                         Field('round_size','int'),)\ndb.define_table('round',Field('series_id','int'))\ndb.define_table('result',Field('score','int'),\n                         Field('round_id','int'))\n\n## after defining tables, uncomment below to enable auditing\n# auth.enable_record_versioning(db)\n"
p7
sS'snapshot'
p8
(dp9
S'exception'
p10
(dp11
S'__getslice__'
p12
S"<method-wrapper '__getslice__' of exceptions.SyntaxError object>"
p13
sS'text'
p14
S'None'
p15
sS'__str__'
p16
S"<method-wrapper '__str__' of exceptions.SyntaxError object>"
p17
sS'__reduce__'
p18
S'<built-in method __reduce__ of exceptions.SyntaxError object>'
p19
sS'__dict__'
p20
S'{}'
p21
sS'__sizeof__'
p22
S'<built-in method __sizeof__ of exceptions.SyntaxError object>'
p23
sS'__init__'
p24
S"<method-wrapper '__init__' of exceptions.SyntaxError object>"
p25
sS'__setattr__'
p26
S"<method-wrapper '__setattr__' of exceptions.SyntaxError object>"
p27
sS'__reduce_ex__'
p28
S'<built-in method __reduce_ex__ of exceptions.SyntaxError object>'
p29
sS'__new__'
p30
S'<built-in method __new__ of type object>'
p31
sS'__format__'
p32
S'<built-in method __format__ of exceptions.SyntaxError object>'
p33
sS'__class__'
p34
S"<type 'exceptions.SyntaxError'>"
p35
sS'filename'
p36
S'None'
p37
sS'lineno'
p38
S'None'
p39
sS'msg'
p40
S"'Field: unknown field type: int for default_target_size'"
p41
sS'__doc__'
p42
S"'Invalid syntax.'"
p43
sS'__getitem__'
p44
S"<method-wrapper '__getitem__' of exceptions.SyntaxError object>"
p45
sS'__setstate__'
p46
S'<built-in method __setstate__ of exceptions.SyntaxError object>'
p47
sS'__getattribute__'
p48
S"<method-wrapper '__getattribute__' of exceptions.SyntaxError object>"
p49
sS'print_file_and_line'
p50
S'None'
p51
sS'args'
p52
S"('Field: unknown field type: int for default_target_size',)"
p53
sS'__subclasshook__'
p54
S'<built-in method __subclasshook__ of type object>'
p55
sS'offset'
p56
S'None'
p57
sS'__unicode__'
p58
S'<built-in method __unicode__ of exceptions.SyntaxError object>'
p59
sS'__delattr__'
p60
S"<method-wrapper '__delattr__' of exceptions.SyntaxError object>"
p61
sS'__repr__'
p62
S"<method-wrapper '__repr__' of exceptions.SyntaxError object>"
p63
sS'__hash__'
p64
S"<method-wrapper '__hash__' of exceptions.SyntaxError object>"
p65
ssS'evalue'
p66
S'Field: unknown field type: int for default_target_size'
p67
sS'request'
p68
ccopy_reg
_reconstructor
p69
(cgluon.html
BEAUTIFY
p70
c__builtin__
object
p71
NtRp72
(dp73
S'attributes'
p74
(dp75
sS'components'
p76
(lp77
g69
(cgluon.html
TABLE
p78
g71
NtRp79
(dp80
g74
(dp81
S'level'
p82
I5
ssS'parent'
p83
Nsg76
(lp84
g69
(cgluon.html
TR
p85
g71
NtRp86
(dp87
g74
(dp88
sg83
g79
sg76
(lp89
g69
(cgluon.html
TD
p90
g71
NtRp91
(dp92
g74
(dp93
S'_style'
p94
S'font-weight:bold;vertical-align:top'
p95
ssg83
g86
sg76
(lp96
S'ajax'
p97
asbag69
(g90
g71
NtRp98
(dp99
g74
(dp100
S'_valign'
p101
S'top'
p102
ssg83
g86
sg76
(lp103
S':'
asbag69
(g90
g71
NtRp104
(dp105
g74
(dp106
sg83
g86
sg76
(lp107
g69
(g70
g71
NtRp108
(dp109
g74
(dp110
g82
I5
ssg83
g104
sg76
(lp111
S'False'
p112
asbasbasbag69
(g85
g71
NtRp113
(dp114
g74
(dp115
sg83
g79
sg76
(lp116
g69
(g90
g71
NtRp117
(dp118
g74
(dp119
g94
g95
ssg83
g113
sg76
(lp120
S'application'
p121
asbag69
(g90
g71
NtRp122
(dp123
g74
(dp124
g101
g102
ssg83
g113
sg76
(lp125
S':'
asbag69
(g90
g71
NtRp126
(dp127
g74
(dp128
sg83
g113
sg76
(lp129
g69
(g70
g71
NtRp130
(dp131
g74
(dp132
g82
I5
ssg83
g126
sg76
(lp133
S'asvpwapp'
p134
asbasbasbag69
(g85
g71
NtRp135
(dp136
g74
(dp137
sg83
g79
sg76
(lp138
g69
(g90
g71
NtRp139
(dp140
g74
(dp141
g94
g95
ssg83
g135
sg76
(lp142
g52
asbag69
(g90
g71
NtRp143
(dp144
g74
(dp145
g101
g102
ssg83
g135
sg76
(lp146
S':'
asbag69
(g90
g71
NtRp147
(dp148
g74
(dp149
sg83
g135
sg76
(lp150
g69
(g70
g71
NtRp151
(dp152
g74
(dp153
g82
I5
ssg83
g147
sg76
(lp154
g69
(g78
g71
NtRp155
(dp156
g74
(dp157
g82
I4
ssg83
Nsg76
(lp158
sbasbasbasbag69
(g85
g71
NtRp159
(dp160
g74
(dp161
sg83
g79
sg76
(lp162
g69
(g90
g71
NtRp163
(dp164
g74
(dp165
g94
g95
ssg83
g159
sg76
(lp166
S'body'
p167
asbag69
(g90
g71
NtRp168
(dp169
g74
(dp170
g101
g102
ssg83
g159
sg76
(lp171
S':'
asbag69
(g90
g71
NtRp172
(dp173
g74
(dp174
sg83
g159
sg76
(lp175
g69
(g70
g71
NtRp176
(dp177
g74
(dp178
g82
I5
ssg83
g172
sg76
(lp179
S'<cStringIO.StringO object at 0x1ca1960>'
p180
asbasbasbag69
(g85
g71
NtRp181
(dp182
g74
(dp183
sg83
g79
sg76
(lp184
g69
(g90
g71
NtRp185
(dp186
g74
(dp187
g94
g95
ssg83
g181
sg76
(lp188
S'cid'
p189
asbag69
(g90
g71
NtRp190
(dp191
g74
(dp192
g101
g102
ssg83
g181
sg76
(lp193
S':'
asbag69
(g90
g71
NtRp194
(dp195
g74
(dp196
sg83
g181
sg76
(lp197
g69
(g70
g71
NtRp198
(dp199
g74
(dp200
g82
I5
ssg83
g194
sg76
(lp201
S'None'
p202
asbasbasbag69
(g85
g71
NtRp203
(dp204
g74
(dp205
sg83
g79
sg76
(lp206
g69
(g90
g71
NtRp207
(dp208
g74
(dp209
g94
g95
ssg83
g203
sg76
(lp210
S'client'
p211
asbag69
(g90
g71
NtRp212
(dp213
g74
(dp214
g101
g102
ssg83
g203
sg76
(lp215
S':'
asbag69
(g90
g71
NtRp216
(dp217
g74
(dp218
sg83
g203
sg76
(lp219
g69
(g70
g71
NtRp220
(dp221
g74
(dp222
g82
I5
ssg83
g216
sg76
(lp223
S'127.0.0.1'
p224
asbasbasbag69
(g85
g71
NtRp225
(dp226
g74
(dp227
sg83
g79
sg76
(lp228
g69
(g90
g71
NtRp229
(dp230
g74
(dp231
g94
g95
ssg83
g225
sg76
(lp232
S'controller'
p233
asbag69
(g90
g71
NtRp234
(dp235
g74
(dp236
g101
g102
ssg83
g225
sg76
(lp237
S':'
asbag69
(g90
g71
NtRp238
(dp239
g74
(dp240
sg83
g225
sg76
(lp241
g69
(g70
g71
NtRp242
(dp243
g74
(dp244
g82
I5
ssg83
g238
sg76
(lp245
S'default'
p246
asbasbasbag69
(g85
g71
NtRp247
(dp248
g74
(dp249
sg83
g79
sg76
(lp250
g69
(g90
g71
NtRp251
(dp252
g74
(dp253
g94
g95
ssg83
g247
sg76
(lp254
S'cookies'
p255
asbag69
(g90
g71
NtRp256
(dp257
g74
(dp258
g101
g102
ssg83
g247
sg76
(lp259
S':'
asbag69
(g90
g71
NtRp260
(dp261
g74
(dp262
sg83
g247
sg76
(lp263
g69
(g70
g71
NtRp264
(dp265
g74
(dp266
g82
I5
ssg83
g260
sg76
(lp267
g69
(g78
g71
NtRp268
(dp269
g74
(dp270
g82
I4
ssg83
Nsg76
(lp271
g69
(g85
g71
NtRp272
(dp273
g74
(dp274
sg83
g268
sg76
(lp275
g69
(g90
g71
NtRp276
(dp277
g74
(dp278
g94
g95
ssg83
g272
sg76
(lp279
S'SessionID'
p280
asbag69
(g90
g71
NtRp281
(dp282
g74
(dp283
g101
g102
ssg83
g272
sg76
(lp284
S':'
asbag69
(g90
g71
NtRp285
(dp286
g74
(dp287
sg83
g272
sg76
(lp288
g69
(g70
g71
NtRp289
(dp290
g74
(dp291
g82
I4
ssg83
g285
sg76
(lp292
S'943f5c2a38079802cb40146766ea3745903d6946'
p293
ag69
(g78
g71
NtRp294
(dp295
g74
(dp296
g82
I3
ssg83
Nsg76
(lp297
g69
(g85
g71
NtRp298
(dp299
g74
(dp300
sg83
g294
sg76
(lp301
g69
(g90
g71
NtRp302
(dp303
g74
(dp304
g94
g95
ssg83
g298
sg76
(lp305
S'comment'
p306
asbag69
(g90
g71
NtRp307
(dp308
g74
(dp309
g101
g102
ssg83
g298
sg76
(lp310
S':'
asbag69
(g90
g71
NtRp311
(dp312
g74
(dp313
sg83
g298
sg76
(lp314
g69
(g70
g71
NtRp315
(dp316
g74
(dp317
g82
I3
ssg83
g311
sg76
(lp318
S''
asbasbasbag69
(g85
g71
NtRp319
(dp320
g74
(dp321
sg83
g294
sg76
(lp322
g69
(g90
g71
NtRp323
(dp324
g74
(dp325
g94
g95
ssg83
g319
sg76
(lp326
S'domain'
p327
asbag69
(g90
g71
NtRp328
(dp329
g74
(dp330
g101
g102
ssg83
g319
sg76
(lp331
S':'
asbag69
(g90
g71
NtRp332
(dp333
g74
(dp334
sg83
g319
sg76
(lp335
g69
(g70
g71
NtRp336
(dp337
g74
(dp338
g82
I3
ssg83
g332
sg76
(lp339
S''
asbasbasbag69
(g85
g71
NtRp340
(dp341
g74
(dp342
sg83
g294
sg76
(lp343
g69
(g90
g71
NtRp344
(dp345
g74
(dp346
g94
g95
ssg83
g340
sg76
(lp347
S'expires'
p348
asbag69
(g90
g71
NtRp349
(dp350
g74
(dp351
g101
g102
ssg83
g340
sg76
(lp352
S':'
asbag69
(g90
g71
NtRp353
(dp354
g74
(dp355
sg83
g340
sg76
(lp356
g69
(g70
g71
NtRp357
(dp358
g74
(dp359
g82
I3
ssg83
g353
sg76
(lp360
S''
asbasbasbag69
(g85
g71
NtRp361
(dp362
g74
(dp363
sg83
g294
sg76
(lp364
g69
(g90
g71
NtRp365
(dp366
g74
(dp367
g94
g95
ssg83
g361
sg76
(lp368
S'httponly'
p369
asbag69
(g90
g71
NtRp370
(dp371
g74
(dp372
g101
g102
ssg83
g361
sg76
(lp373
S':'
asbag69
(g90
g71
NtRp374
(dp375
g74
(dp376
sg83
g361
sg76
(lp377
g69
(g70
g71
NtRp378
(dp379
g74
(dp380
g82
I3
ssg83
g374
sg76
(lp381
S''
asbasbasbag69
(g85
g71
NtRp382
(dp383
g74
(dp384
sg83
g294
sg76
(lp385
g69
(g90
g71
NtRp386
(dp387
g74
(dp388
g94
g95
ssg83
g382
sg76
(lp389
S'max-age'
p390
asbag69
(g90
g71
NtRp391
(dp392
g74
(dp393
g101
g102
ssg83
g382
sg76
(lp394
S':'
asbag69
(g90
g71
NtRp395
(dp396
g74
(dp397
sg83
g382
sg76
(lp398
g69
(g70
g71
NtRp399
(dp400
g74
(dp401
g82
I3
ssg83
g395
sg76
(lp402
S''
asbasbasbag69
(g85
g71
NtRp403
(dp404
g74
(dp405
sg83
g294
sg76
(lp406
g69
(g90
g71
NtRp407
(dp408
g74
(dp409
g94
g95
ssg83
g403
sg76
(lp410
S'path'
p411
asbag69
(g90
g71
NtRp412
(dp413
g74
(dp414
g101
g102
ssg83
g403
sg76
(lp415
S':'
asbag69
(g90
g71
NtRp416
(dp417
g74
(dp418
sg83
g403
sg76
(lp419
g69
(g70
g71
NtRp420
(dp421
g74
(dp422
g82
I3
ssg83
g416
sg76
(lp423
S''
asbasbasbag69
(g85
g71
NtRp424
(dp425
g74
(dp426
sg83
g294
sg76
(lp427
g69
(g90
g71
NtRp428
(dp429
g74
(dp430
g94
g95
ssg83
g424
sg76
(lp431
S'secure'
p432
asbag69
(g90
g71
NtRp433
(dp434
g74
(dp435
g101
g102
ssg83
g424
sg76
(lp436
S':'
asbag69
(g90
g71
NtRp437
(dp438
g74
(dp439
sg83
g424
sg76
(lp440
g69
(g70
g71
NtRp441
(dp442
g74
(dp443
g82
I3
ssg83
g437
sg76
(lp444
S''
asbasbasbag69
(g85
g71
NtRp445
(dp446
g74
(dp447
sg83
g294
sg76
(lp448
g69
(g90
g71
NtRp449
(dp450
g74
(dp451
g94
g95
ssg83
g445
sg76
(lp452
S'version'
p453
asbag69
(g90
g71
NtRp454
(dp455
g74
(dp456
g101
g102
ssg83
g445
sg76
(lp457
S':'
asbag69
(g90
g71
NtRp458
(dp459
g74
(dp460
sg83
g445
sg76
(lp461
g69
(g70
g71
NtRp462
(dp463
g74
(dp464
g82
I3
ssg83
g458
sg76
(lp465
S''
asbasbasbasbasbasbasbag69
(g85
g71
NtRp466
(dp467
g74
(dp468
sg83
g268
sg76
(lp469
g69
(g90
g71
NtRp470
(dp471
g74
(dp472
g94
g95
ssg83
g466
sg76
(lp473
S'session_id_admin'
p474
asbag69
(g90
g71
NtRp475
(dp476
g74
(dp477
g101
g102
ssg83
g466
sg76
(lp478
S':'
asbag69
(g90
g71
NtRp479
(dp480
g74
(dp481
sg83
g466
sg76
(lp482
g69
(g70
g71
NtRp483
(dp484
g74
(dp485
g82
I4
ssg83
g479
sg76
(lp486
S'127.0.0.1-98543859-0e70-44ac-831a-9d0e5b3171be'
p487
ag69
(g78
g71
NtRp488
(dp489
g74
(dp490
g82
I3
ssg83
Nsg76
(lp491
g69
(g85
g71
NtRp492
(dp493
g74
(dp494
sg83
g488
sg76
(lp495
g69
(g90
g71
NtRp496
(dp497
g74
(dp498
g94
g95
ssg83
g492
sg76
(lp499
g306
asbag69
(g90
g71
NtRp500
(dp501
g74
(dp502
g101
g102
ssg83
g492
sg76
(lp503
S':'
asbag69
(g90
g71
NtRp504
(dp505
g74
(dp506
sg83
g492
sg76
(lp507
g69
(g70
g71
NtRp508
(dp509
g74
(dp510
g82
I3
ssg83
g504
sg76
(lp511
S''
asbasbasbag69
(g85
g71
NtRp512
(dp513
g74
(dp514
sg83
g488
sg76
(lp515
g69
(g90
g71
NtRp516
(dp517
g74
(dp518
g94
g95
ssg83
g512
sg76
(lp519
g327
asbag69
(g90
g71
NtRp520
(dp521
g74
(dp522
g101
g102
ssg83
g512
sg76
(lp523
S':'
asbag69
(g90
g71
NtRp524
(dp525
g74
(dp526
sg83
g512
sg76
(lp527
g69
(g70
g71
NtRp528
(dp529
g74
(dp530
g82
I3
ssg83
g524
sg76
(lp531
S''
asbasbasbag69
(g85
g71
NtRp532
(dp533
g74
(dp534
sg83
g488
sg76
(lp535
g69
(g90
g71
NtRp536
(dp537
g74
(dp538
g94
g95
ssg83
g532
sg76
(lp539
g348
asbag69
(g90
g71
NtRp540
(dp541
g74
(dp542
g101
g102
ssg83
g532
sg76
(lp543
S':'
asbag69
(g90
g71
NtRp544
(dp545
g74
(dp546
sg83
g532
sg76
(lp547
g69
(g70
g71
NtRp548
(dp549
g74
(dp550
g82
I3
ssg83
g544
sg76
(lp551
S''
asbasbasbag69
(g85
g71
NtRp552
(dp553
g74
(dp554
sg83
g488
sg76
(lp555
g69
(g90
g71
NtRp556
(dp557
g74
(dp558
g94
g95
ssg83
g552
sg76
(lp559
g369
asbag69
(g90
g71
NtRp560
(dp561
g74
(dp562
g101
g102
ssg83
g552
sg76
(lp563
S':'
asbag69
(g90
g71
NtRp564
(dp565
g74
(dp566
sg83
g552
sg76
(lp567
g69
(g70
g71
NtRp568
(dp569
g74
(dp570
g82
I3
ssg83
g564
sg76
(lp571
S''
asbasbasbag69
(g85
g71
NtRp572
(dp573
g74
(dp574
sg83
g488
sg76
(lp575
g69
(g90
g71
NtRp576
(dp577
g74
(dp578
g94
g95
ssg83
g572
sg76
(lp579
g390
asbag69
(g90
g71
NtRp580
(dp581
g74
(dp582
g101
g102
ssg83
g572
sg76
(lp583
S':'
asbag69
(g90
g71
NtRp584
(dp585
g74
(dp586
sg83
g572
sg76
(lp587
g69
(g70
g71
NtRp588
(dp589
g74
(dp590
g82
I3
ssg83
g584
sg76
(lp591
S''
asbasbasbag69
(g85
g71
NtRp592
(dp593
g74
(dp594
sg83
g488
sg76
(lp595
g69
(g90
g71
NtRp596
(dp597
g74
(dp598
g94
g95
ssg83
g592
sg76
(lp599
g411
asbag69
(g90
g71
NtRp600
(dp601
g74
(dp602
g101
g102
ssg83
g592
sg76
(lp603
S':'
asbag69
(g90
g71
NtRp604
(dp605
g74
(dp606
sg83
g592
sg76
(lp607
g69
(g70
g71
NtRp608
(dp609
g74
(dp610
g82
I3
ssg83
g604
sg76
(lp611
S''
asbasbasbag69
(g85
g71
NtRp612
(dp613
g74
(dp614
sg83
g488
sg76
(lp615
g69
(g90
g71
NtRp616
(dp617
g74
(dp618
g94
g95
ssg83
g612
sg76
(lp619
g432
asbag69
(g90
g71
NtRp620
(dp621
g74
(dp622
g101
g102
ssg83
g612
sg76
(lp623
S':'
asbag69
(g90
g71
NtRp624
(dp625
g74
(dp626
sg83
g612
sg76
(lp627
g69
(g70
g71
NtRp628
(dp629
g74
(dp630
g82
I3
ssg83
g624
sg76
(lp631
S''
asbasbasbag69
(g85
g71
NtRp632
(dp633
g74
(dp634
sg83
g488
sg76
(lp635
g69
(g90
g71
NtRp636
(dp637
g74
(dp638
g94
g95
ssg83
g632
sg76
(lp639
g453
asbag69
(g90
g71
NtRp640
(dp641
g74
(dp642
g101
g102
ssg83
g632
sg76
(lp643
S':'
asbag69
(g90
g71
NtRp644
(dp645
g74
(dp646
sg83
g632
sg76
(lp647
g69
(g70
g71
NtRp648
(dp649
g74
(dp650
g82
I3
ssg83
g644
sg76
(lp651
S''
asbasbasbasbasbasbasbag69
(g85
g71
NtRp652
(dp653
g74
(dp654
sg83
g268
sg76
(lp655
g69
(g90
g71
NtRp656
(dp657
g74
(dp658
g94
g95
ssg83
g652
sg76
(lp659
S'session_id_asvpwapp'
p660
asbag69
(g90
g71
NtRp661
(dp662
g74
(dp663
g101
g102
ssg83
g652
sg76
(lp664
S':'
asbag69
(g90
g71
NtRp665
(dp666
g74
(dp667
sg83
g652
sg76
(lp668
g69
(g70
g71
NtRp669
(dp670
g74
(dp671
g82
I4
ssg83
g665
sg76
(lp672
S'127.0.0.1-dad6e9ab-5619-437d-a0e7-f036e62e3fed'
p673
ag69
(g78
g71
NtRp674
(dp675
g74
(dp676
g82
I3
ssg83
Nsg76
(lp677
g69
(g85
g71
NtRp678
(dp679
g74
(dp680
sg83
g674
sg76
(lp681
g69
(g90
g71
NtRp682
(dp683
g74
(dp684
g94
g95
ssg83
g678
sg76
(lp685
g306
asbag69
(g90
g71
NtRp686
(dp687
g74
(dp688
g101
g102
ssg83
g678
sg76
(lp689
S':'
asbag69
(g90
g71
NtRp690
(dp691
g74
(dp692
sg83
g678
sg76
(lp693
g69
(g70
g71
NtRp694
(dp695
g74
(dp696
g82
I3
ssg83
g690
sg76
(lp697
S''
asbasbasbag69
(g85
g71
NtRp698
(dp699
g74
(dp700
sg83
g674
sg76
(lp701
g69
(g90
g71
NtRp702
(dp703
g74
(dp704
g94
g95
ssg83
g698
sg76
(lp705
g327
asbag69
(g90
g71
NtRp706
(dp707
g74
(dp708
g101
g102
ssg83
g698
sg76
(lp709
S':'
asbag69
(g90
g71
NtRp710
(dp711
g74
(dp712
sg83
g698
sg76
(lp713
g69
(g70
g71
NtRp714
(dp715
g74
(dp716
g82
I3
ssg83
g710
sg76
(lp717
S''
asbasbasbag69
(g85
g71
NtRp718
(dp719
g74
(dp720
sg83
g674
sg76
(lp721
g69
(g90
g71
NtRp722
(dp723
g74
(dp724
g94
g95
ssg83
g718
sg76
(lp725
g348
asbag69
(g90
g71
NtRp726
(dp727
g74
(dp728
g101
g102
ssg83
g718
sg76
(lp729
S':'
asbag69
(g90
g71
NtRp730
(dp731
g74
(dp732
sg83
g718
sg76
(lp733
g69
(g70
g71
NtRp734
(dp735
g74
(dp736
g82
I3
ssg83
g730
sg76
(lp737
S''
asbasbasbag69
(g85
g71
NtRp738
(dp739
g74
(dp740
sg83
g674
sg76
(lp741
g69
(g90
g71
NtRp742
(dp743
g74
(dp744
g94
g95
ssg83
g738
sg76
(lp745
g369
asbag69
(g90
g71
NtRp746
(dp747
g74
(dp748
g101
g102
ssg83
g738
sg76
(lp749
S':'
asbag69
(g90
g71
NtRp750
(dp751
g74
(dp752
sg83
g738
sg76
(lp753
g69
(g70
g71
NtRp754
(dp755
g74
(dp756
g82
I3
ssg83
g750
sg76
(lp757
S''
asbasbasbag69
(g85
g71
NtRp758
(dp759
g74
(dp760
sg83
g674
sg76
(lp761
g69
(g90
g71
NtRp762
(dp763
g74
(dp764
g94
g95
ssg83
g758
sg76
(lp765
g390
asbag69
(g90
g71
NtRp766
(dp767
g74
(dp768
g101
g102
ssg83
g758
sg76
(lp769
S':'
asbag69
(g90
g71
NtRp770
(dp771
g74
(dp772
sg83
g758
sg76
(lp773
g69
(g70
g71
NtRp774
(dp775
g74
(dp776
g82
I3
ssg83
g770
sg76
(lp777
S''
asbasbasbag69
(g85
g71
NtRp778
(dp779
g74
(dp780
sg83
g674
sg76
(lp781
g69
(g90
g71
NtRp782
(dp783
g74
(dp784
g94
g95
ssg83
g778
sg76
(lp785
g411
asbag69
(g90
g71
NtRp786
(dp787
g74
(dp788
g101
g102
ssg83
g778
sg76
(lp789
S':'
asbag69
(g90
g71
NtRp790
(dp791
g74
(dp792
sg83
g778
sg76
(lp793
g69
(g70
g71
NtRp794
(dp795
g74
(dp796
g82
I3
ssg83
g790
sg76
(lp797
S''
asbasbasbag69
(g85
g71
NtRp798
(dp799
g74
(dp800
sg83
g674
sg76
(lp801
g69
(g90
g71
NtRp802
(dp803
g74
(dp804
g94
g95
ssg83
g798
sg76
(lp805
g432
asbag69
(g90
g71
NtRp806
(dp807
g74
(dp808
g101
g102
ssg83
g798
sg76
(lp809
S':'
asbag69
(g90
g71
NtRp810
(dp811
g74
(dp812
sg83
g798
sg76
(lp813
g69
(g70
g71
NtRp814
(dp815
g74
(dp816
g82
I3
ssg83
g810
sg76
(lp817
S''
asbasbasbag69
(g85
g71
NtRp818
(dp819
g74
(dp820
sg83
g674
sg76
(lp821
g69
(g90
g71
NtRp822
(dp823
g74
(dp824
g94
g95
ssg83
g818
sg76
(lp825
g453
asbag69
(g90
g71
NtRp826
(dp827
g74
(dp828
g101
g102
ssg83
g818
sg76
(lp829
S':'
asbag69
(g90
g71
NtRp830
(dp831
g74
(dp832
sg83
g818
sg76
(lp833
g69
(g70
g71
NtRp834
(dp835
g74
(dp836
g82
I3
ssg83
g830
sg76
(lp837
S''
asbasbasbasbasbasbasbag69
(g85
g71
NtRp838
(dp839
g74
(dp840
sg83
g268
sg76
(lp841
g69
(g90
g71
NtRp842
(dp843
g74
(dp844
g94
g95
ssg83
g838
sg76
(lp845
S'session_id_csrfme'
p846
asbag69
(g90
g71
NtRp847
(dp848
g74
(dp849
g101
g102
ssg83
g838
sg76
(lp850
S':'
asbag69
(g90
g71
NtRp851
(dp852
g74
(dp853
sg83
g838
sg76
(lp854
g69
(g70
g71
NtRp855
(dp856
g74
(dp857
g82
I4
ssg83
g851
sg76
(lp858
S'127.0.0.1-f073d4ce-46d2-4325-88cf-864b84b91aac'
p859
ag69
(g78
g71
NtRp860
(dp861
g74
(dp862
g82
I3
ssg83
Nsg76
(lp863
g69
(g85
g71
NtRp864
(dp865
g74
(dp866
sg83
g860
sg76
(lp867
g69
(g90
g71
NtRp868
(dp869
g74
(dp870
g94
g95
ssg83
g864
sg76
(lp871
g306
asbag69
(g90
g71
NtRp872
(dp873
g74
(dp874
g101
g102
ssg83
g864
sg76
(lp875
S':'
asbag69
(g90
g71
NtRp876
(dp877
g74
(dp878
sg83
g864
sg76
(lp879
g69
(g70
g71
NtRp880
(dp881
g74
(dp882
g82
I3
ssg83
g876
sg76
(lp883
S''
asbasbasbag69
(g85
g71
NtRp884
(dp885
g74
(dp886
sg83
g860
sg76
(lp887
g69
(g90
g71
NtRp888
(dp889
g74
(dp890
g94
g95
ssg83
g884
sg76
(lp891
g327
asbag69
(g90
g71
NtRp892
(dp893
g74
(dp894
g101
g102
ssg83
g884
sg76
(lp895
S':'
asbag69
(g90
g71
NtRp896
(dp897
g74
(dp898
sg83
g884
sg76
(lp899
g69
(g70
g71
NtRp900
(dp901
g74
(dp902
g82
I3
ssg83
g896
sg76
(lp903
S''
asbasbasbag69
(g85
g71
NtRp904
(dp905
g74
(dp906
sg83
g860
sg76
(lp907
g69
(g90
g71
NtRp908
(dp909
g74
(dp910
g94
g95
ssg83
g904
sg76
(lp911
g348
asbag69
(g90
g71
NtRp912
(dp913
g74
(dp914
g101
g102
ssg83
g904
sg76
(lp915
S':'
asbag69
(g90
g71
NtRp916
(dp917
g74
(dp918
sg83
g904
sg76
(lp919
g69
(g70
g71
NtRp920
(dp921
g74
(dp922
g82
I3
ssg83
g916
sg76
(lp923
S''
asbasbasbag69
(g85
g71
NtRp924
(dp925
g74
(dp926
sg83
g860
sg76
(lp927
g69
(g90
g71
NtRp928
(dp929
g74
(dp930
g94
g95
ssg83
g924
sg76
(lp931
g369
asbag69
(g90
g71
NtRp932
(dp933
g74
(dp934
g101
g102
ssg83
g924
sg76
(lp935
S':'
asbag69
(g90
g71
NtRp936
(dp937
g74
(dp938
sg83
g924
sg76
(lp939
g69
(g70
g71
NtRp940
(dp941
g74
(dp942
g82
I3
ssg83
g936
sg76
(lp943
S''
asbasbasbag69
(g85
g71
NtRp944
(dp945
g74
(dp946
sg83
g860
sg76
(lp947
g69
(g90
g71
NtRp948
(dp949
g74
(dp950
g94
g95
ssg83
g944
sg76
(lp951
g390
asbag69
(g90
g71
NtRp952
(dp953
g74
(dp954
g101
g102
ssg83
g944
sg76
(lp955
S':'
asbag69
(g90
g71
NtRp956
(dp957
g74
(dp958
sg83
g944
sg76
(lp959
g69
(g70
g71
NtRp960
(dp961
g74
(dp962
g82
I3
ssg83
g956
sg76
(lp963
S''
asbasbasbag69
(g85
g71
NtRp964
(dp965
g74
(dp966
sg83
g860
sg76
(lp967
g69
(g90
g71
NtRp968
(dp969
g74
(dp970
g94
g95
ssg83
g964
sg76
(lp971
g411
asbag69
(g90
g71
NtRp972
(dp973
g74
(dp974
g101
g102
ssg83
g964
sg76
(lp975
S':'
asbag69
(g90
g71
NtRp976
(dp977
g74
(dp978
sg83
g964
sg76
(lp979
g69
(g70
g71
NtRp980
(dp981
g74
(dp982
g82
I3
ssg83
g976
sg76
(lp983
S''
asbasbasbag69
(g85
g71
NtRp984
(dp985
g74
(dp986
sg83
g860
sg76
(lp987
g69
(g90
g71
NtRp988
(dp989
g74
(dp990
g94
g95
ssg83
g984
sg76
(lp991
g432
asbag69
(g90
g71
NtRp992
(dp993
g74
(dp994
g101
g102
ssg83
g984
sg76
(lp995
S':'
asbag69
(g90
g71
NtRp996
(dp997
g74
(dp998
sg83
g984
sg76
(lp999
g69
(g70
g71
NtRp1000
(dp1001
g74
(dp1002
g82
I3
ssg83
g996
sg76
(lp1003
S''
asbasbasbag69
(g85
g71
NtRp1004
(dp1005
g74
(dp1006
sg83
g860
sg76
(lp1007
g69
(g90
g71
NtRp1008
(dp1009
g74
(dp1010
g94
g95
ssg83
g1004
sg76
(lp1011
g453
asbag69
(g90
g71
NtRp1012
(dp1013
g74
(dp1014
g101
g102
ssg83
g1004
sg76
(lp1015
S':'
asbag69
(g90
g71
NtRp1016
(dp1017
g74
(dp1018
sg83
g1004
sg76
(lp1019
g69
(g70
g71
NtRp1020
(dp1021
g74
(dp1022
g82
I3
ssg83
g1016
sg76
(lp1023
S''
asbasbasbasbasbasbasbag69
(g85
g71
NtRp1024
(dp1025
g74
(dp1026
sg83
g268
sg76
(lp1027
g69
(g90
g71
NtRp1028
(dp1029
g74
(dp1030
g94
g95
ssg83
g1024
sg76
(lp1031
S'session_id_welcome'
p1032
asbag69
(g90
g71
NtRp1033
(dp1034
g74
(dp1035
g101
g102
ssg83
g1024
sg76
(lp1036
S':'
asbag69
(g90
g71
NtRp1037
(dp1038
g74
(dp1039
sg83
g1024
sg76
(lp1040
g69
(g70
g71
NtRp1041
(dp1042
g74
(dp1043
g82
I4
ssg83
g1037
sg76
(lp1044
S'127.0.0.1-ab206e97-1753-4b1c-8e63-9bebc92d5728'
p1045
ag69
(g78
g71
NtRp1046
(dp1047
g74
(dp1048
g82
I3
ssg83
Nsg76
(lp1049
g69
(g85
g71
NtRp1050
(dp1051
g74
(dp1052
sg83
g1046
sg76
(lp1053
g69
(g90
g71
NtRp1054
(dp1055
g74
(dp1056
g94
g95
ssg83
g1050
sg76
(lp1057
g306
asbag69
(g90
g71
NtRp1058
(dp1059
g74
(dp1060
g101
g102
ssg83
g1050
sg76
(lp1061
S':'
asbag69
(g90
g71
NtRp1062
(dp1063
g74
(dp1064
sg83
g1050
sg76
(lp1065
g69
(g70
g71
NtRp1066
(dp1067
g74
(dp1068
g82
I3
ssg83
g1062
sg76
(lp1069
S''
asbasbasbag69
(g85
g71
NtRp1070
(dp1071
g74
(dp1072
sg83
g1046
sg76
(lp1073
g69
(g90
g71
NtRp1074
(dp1075
g74
(dp1076
g94
g95
ssg83
g1070
sg76
(lp1077
g327
asbag69
(g90
g71
NtRp1078
(dp1079
g74
(dp1080
g101
g102
ssg83
g1070
sg76
(lp1081
S':'
asbag69
(g90
g71
NtRp1082
(dp1083
g74
(dp1084
sg83
g1070
sg76
(lp1085
g69
(g70
g71
NtRp1086
(dp1087
g74
(dp1088
g82
I3
ssg83
g1082
sg76
(lp1089
S''
asbasbasbag69
(g85
g71
NtRp1090
(dp1091
g74
(dp1092
sg83
g1046
sg76
(lp1093
g69
(g90
g71
NtRp1094
(dp1095
g74
(dp1096
g94
g95
ssg83
g1090
sg76
(lp1097
g348
asbag69
(g90
g71
NtRp1098
(dp1099
g74
(dp1100
g101
g102
ssg83
g1090
sg76
(lp1101
S':'
asbag69
(g90
g71
NtRp1102
(dp1103
g74
(dp1104
sg83
g1090
sg76
(lp1105
g69
(g70
g71
NtRp1106
(dp1107
g74
(dp1108
g82
I3
ssg83
g1102
sg76
(lp1109
S''
asbasbasbag69
(g85
g71
NtRp1110
(dp1111
g74
(dp1112
sg83
g1046
sg76
(lp1113
g69
(g90
g71
NtRp1114
(dp1115
g74
(dp1116
g94
g95
ssg83
g1110
sg76
(lp1117
g369
asbag69
(g90
g71
NtRp1118
(dp1119
g74
(dp1120
g101
g102
ssg83
g1110
sg76
(lp1121
S':'
asbag69
(g90
g71
NtRp1122
(dp1123
g74
(dp1124
sg83
g1110
sg76
(lp1125
g69
(g70
g71
NtRp1126
(dp1127
g74
(dp1128
g82
I3
ssg83
g1122
sg76
(lp1129
S''
asbasbasbag69
(g85
g71
NtRp1130
(dp1131
g74
(dp1132
sg83
g1046
sg76
(lp1133
g69
(g90
g71
NtRp1134
(dp1135
g74
(dp1136
g94
g95
ssg83
g1130
sg76
(lp1137
g390
asbag69
(g90
g71
NtRp1138
(dp1139
g74
(dp1140
g101
g102
ssg83
g1130
sg76
(lp1141
S':'
asbag69
(g90
g71
NtRp1142
(dp1143
g74
(dp1144
sg83
g1130
sg76
(lp1145
g69
(g70
g71
NtRp1146
(dp1147
g74
(dp1148
g82
I3
ssg83
g1142
sg76
(lp1149
S''
asbasbasbag69
(g85
g71
NtRp1150
(dp1151
g74
(dp1152
sg83
g1046
sg76
(lp1153
g69
(g90
g71
NtRp1154
(dp1155
g74
(dp1156
g94
g95
ssg83
g1150
sg76
(lp1157
g411
asbag69
(g90
g71
NtRp1158
(dp1159
g74
(dp1160
g101
g102
ssg83
g1150
sg76
(lp1161
S':'
asbag69
(g90
g71
NtRp1162
(dp1163
g74
(dp1164
sg83
g1150
sg76
(lp1165
g69
(g70
g71
NtRp1166
(dp1167
g74
(dp1168
g82
I3
ssg83
g1162
sg76
(lp1169
S''
asbasbasbag69
(g85
g71
NtRp1170
(dp1171
g74
(dp1172
sg83
g1046
sg76
(lp1173
g69
(g90
g71
NtRp1174
(dp1175
g74
(dp1176
g94
g95
ssg83
g1170
sg76
(lp1177
g432
asbag69
(g90
g71
NtRp1178
(dp1179
g74
(dp1180
g101
g102
ssg83
g1170
sg76
(lp1181
S':'
asbag69
(g90
g71
NtRp1182
(dp1183
g74
(dp1184
sg83
g1170
sg76
(lp1185
g69
(g70
g71
NtRp1186
(dp1187
g74
(dp1188
g82
I3
ssg83
g1182
sg76
(lp1189
S''
asbasbasbag69
(g85
g71
NtRp1190
(dp1191
g74
(dp1192
sg83
g1046
sg76
(lp1193
g69
(g90
g71
NtRp1194
(dp1195
g74
(dp1196
g94
g95
ssg83
g1190
sg76
(lp1197
g453
asbag69
(g90
g71
NtRp1198
(dp1199
g74
(dp1200
g101
g102
ssg83
g1190
sg76
(lp1201
S':'
asbag69
(g90
g71
NtRp1202
(dp1203
g74
(dp1204
sg83
g1190
sg76
(lp1205
g69
(g70
g71
NtRp1206
(dp1207
g74
(dp1208
g82
I3
ssg83
g1202
sg76
(lp1209
S''
asbasbasbasbasbasbasbasbasbasbasbag69
(g85
g71
NtRp1210
(dp1211
g74
(dp1212
sg83
g79
sg76
(lp1213
g69
(g90
g71
NtRp1214
(dp1215
g74
(dp1216
g94
g95
ssg83
g1210
sg76
(lp1217
S'env'
p1218
asbag69
(g90
g71
NtRp1219
(dp1220
g74
(dp1221
g101
g102
ssg83
g1210
sg76
(lp1222
S':'
asbag69
(g90
g71
NtRp1223
(dp1224
g74
(dp1225
sg83
g1210
sg76
(lp1226
g69
(g70
g71
NtRp1227
(dp1228
g74
(dp1229
g82
I5
ssg83
g1223
sg76
(lp1230
g69
(g78
g71
NtRp1231
(dp1232
g74
(dp1233
g82
I4
ssg83
Nsg76
(lp1234
g69
(g85
g71
NtRp1235
(dp1236
g74
(dp1237
sg83
g1231
sg76
(lp1238
g69
(g90
g71
NtRp1239
(dp1240
g74
(dp1241
g94
g95
ssg83
g1235
sg76
(lp1242
S'app_folders'
p1243
asbag69
(g90
g71
NtRp1244
(dp1245
g74
(dp1246
g101
g102
ssg83
g1235
sg76
(lp1247
S':'
asbag69
(g90
g71
NtRp1248
(dp1249
g74
(dp1250
sg83
g1235
sg76
(lp1251
g69
(g70
g71
NtRp1252
(dp1253
g74
(dp1254
g82
I4
ssg83
g1248
sg76
(lp1255
S"set(['/media/work/home/dev/python/asvpwapp/web2py/applications/welcome/', '/media/work/home/dev/python/asvpwapp/web2py/applications/asvpwapp/', '/media/work/home/dev/python/asvpwapp/web2py/applications/admin/'])"
p1256
asbasbasbag69
(g85
g71
NtRp1257
(dp1258
g74
(dp1259
sg83
g1231
sg76
(lp1260
g69
(g90
g71
NtRp1261
(dp1262
g74
(dp1263
g94
g95
ssg83
g1257
sg76
(lp1264
S'applications_parent'
p1265
asbag69
(g90
g71
NtRp1266
(dp1267
g74
(dp1268
g101
g102
ssg83
g1257
sg76
(lp1269
S':'
asbag69
(g90
g71
NtRp1270
(dp1271
g74
(dp1272
sg83
g1257
sg76
(lp1273
g69
(g70
g71
NtRp1274
(dp1275
g74
(dp1276
g82
I4
ssg83
g1270
sg76
(lp1277
S'/media/work/home/dev/python/asvpwapp/web2py'
p1278
asbasbasbag69
(g85
g71
NtRp1279
(dp1280
g74
(dp1281
sg83
g1231
sg76
(lp1282
g69
(g90
g71
NtRp1283
(dp1284
g74
(dp1285
g94
g95
ssg83
g1279
sg76
(lp1286
S'cmd_args'
p1287
asbag69
(g90
g71
NtRp1288
(dp1289
g74
(dp1290
g101
g102
ssg83
g1279
sg76
(lp1291
S':'
asbag69
(g90
g71
NtRp1292
(dp1293
g74
(dp1294
sg83
g1279
sg76
(lp1295
g69
(g70
g71
NtRp1296
(dp1297
g74
(dp1298
g82
I4
ssg83
g1292
sg76
(lp1299
g69
(g78
g71
NtRp1300
(dp1301
g74
(dp1302
g82
I3
ssg83
Nsg76
(lp1303
sbasbasbasbag69
(g85
g71
NtRp1304
(dp1305
g74
(dp1306
sg83
g1231
sg76
(lp1307
g69
(g90
g71
NtRp1308
(dp1309
g74
(dp1310
g94
g95
ssg83
g1304
sg76
(lp1311
S'cmd_options'
p1312
asbag69
(g90
g71
NtRp1313
(dp1314
g74
(dp1315
g101
g102
ssg83
g1304
sg76
(lp1316
S':'
asbag69
(g90
g71
NtRp1317
(dp1318
g74
(dp1319
sg83
g1304
sg76
(lp1320
g69
(g70
g71
NtRp1321
(dp1322
g74
(dp1323
g82
I4
ssg83
g1317
sg76
(lp1324
S"<Values at 0x1d9d5a8: {'verbose': False, 'ip': '127.0.0.1', 'with_scheduler': False, 'ips': [], 'shutdown_timeout': 5, 'taskbar': False, 'port': 8000, 'maxthreads': None, 'softcron': False, 'server_name': 'i5', 'bpython': False, 'nogui': False, 'nocron': False, 'extcron': False, 'run_system_tests': False, 'test': None, 'folder': '/media/work/home/dev/python/asvpwapp/web2py', 'config': '', 'import_models': False, 'winservice': '', 'shell': None, 'run': '', 'log_filename': 'httpserver.log', 'debuglevel': 30, 'args': [''], 'socket_timeout': 5, 'ssl_ca_certificate': None, 'scheduler': None, 'profiler_filename': None, 'ssl_private_key': '', 'scheduler_groups': None, 'password': 'adm', 'request_queue_size': 5, 'ssl_certificate': '', 'cronjob': False, 'numthreads': None, 'quiet': False, 'interfaces': None, 'minthreads': None, 'timeout': 10, 'plain': False, 'nobanner': False, 'pid_filename': 'httpserver.pid'}>"
p1325
asbasbasbag69
(g85
g71
NtRp1326
(dp1327
g74
(dp1328
sg83
g1231
sg76
(lp1329
g69
(g90
g71
NtRp1330
(dp1331
g74
(dp1332
g94
g95
ssg83
g1326
sg76
(lp1333
S'db_sessions'
p1334
asbag69
(g90
g71
NtRp1335
(dp1336
g74
(dp1337
g101
g102
ssg83
g1326
sg76
(lp1338
S':'
asbag69
(g90
g71
NtRp1339
(dp1340
g74
(dp1341
sg83
g1326
sg76
(lp1342
g69
(g70
g71
NtRp1343
(dp1344
g74
(dp1345
g82
I4
ssg83
g1339
sg76
(lp1346
S'set([])'
p1347
asbasbasbag69
(g85
g71
NtRp1348
(dp1349
g74
(dp1350
sg83
g1231
sg76
(lp1351
g69
(g90
g71
NtRp1352
(dp1353
g74
(dp1354
g94
g95
ssg83
g1348
sg76
(lp1355
S'debugging'
p1356
asbag69
(g90
g71
NtRp1357
(dp1358
g74
(dp1359
g101
g102
ssg83
g1348
sg76
(lp1360
S':'
asbag69
(g90
g71
NtRp1361
(dp1362
g74
(dp1363
sg83
g1348
sg76
(lp1364
g69
(g70
g71
NtRp1365
(dp1366
g74
(dp1367
g82
I4
ssg83
g1361
sg76
(lp1368
g112
asbasbasbag69
(g85
g71
NtRp1369
(dp1370
g74
(dp1371
sg83
g1231
sg76
(lp1372
g69
(g90
g71
NtRp1373
(dp1374
g74
(dp1375
g94
g95
ssg83
g1369
sg76
(lp1376
S'gluon_parent'
p1377
asbag69
(g90
g71
NtRp1378
(dp1379
g74
(dp1380
g101
g102
ssg83
g1369
sg76
(lp1381
S':'
asbag69
(g90
g71
NtRp1382
(dp1383
g74
(dp1384
sg83
g1369
sg76
(lp1385
g69
(g70
g71
NtRp1386
(dp1387
g74
(dp1388
g82
I4
ssg83
g1382
sg76
(lp1389
S'/media/work/home/dev/python/asvpwapp/web2py'
p1390
asbasbasbag69
(g85
g71
NtRp1391
(dp1392
g74
(dp1393
sg83
g1231
sg76
(lp1394
g69
(g90
g71
NtRp1395
(dp1396
g74
(dp1397
g94
g95
ssg83
g1391
sg76
(lp1398
S'http_accept'
p1399
asbag69
(g90
g71
NtRp1400
(dp1401
g74
(dp1402
g101
g102
ssg83
g1391
sg76
(lp1403
S':'
asbag69
(g90
g71
NtRp1404
(dp1405
g74
(dp1406
sg83
g1391
sg76
(lp1407
g69
(g70
g71
NtRp1408
(dp1409
g74
(dp1410
g82
I4
ssg83
g1404
sg76
(lp1411
S'text/html,application/xhtml+xml,application/xml;q=0.9,*/*;q=0.8'
p1412
asbasbasbag69
(g85
g71
NtRp1413
(dp1414
g74
(dp1415
sg83
g1231
sg76
(lp1416
g69
(g90
g71
NtRp1417
(dp1418
g74
(dp1419
g94
g95
ssg83
g1413
sg76
(lp1420
S'http_accept_encoding'
p1421
asbag69
(g90
g71
NtRp1422
(dp1423
g74
(dp1424
g101
g102
ssg83
g1413
sg76
(lp1425
S':'
asbag69
(g90
g71
NtRp1426
(dp1427
g74
(dp1428
sg83
g1413
sg76
(lp1429
g69
(g70
g71
NtRp1430
(dp1431
g74
(dp1432
g82
I4
ssg83
g1426
sg76
(lp1433
S'gzip, deflate'
p1434
asbasbasbag69
(g85
g71
NtRp1435
(dp1436
g74
(dp1437
sg83
g1231
sg76
(lp1438
g69
(g90
g71
NtRp1439
(dp1440
g74
(dp1441
g94
g95
ssg83
g1435
sg76
(lp1442
S'http_accept_language'
p1443
asbag69
(g90
g71
NtRp1444
(dp1445
g74
(dp1446
g101
g102
ssg83
g1435
sg76
(lp1447
S':'
asbag69
(g90
g71
NtRp1448
(dp1449
g74
(dp1450
sg83
g1435
sg76
(lp1451
g69
(g70
g71
NtRp1452
(dp1453
g74
(dp1454
g82
I4
ssg83
g1448
sg76
(lp1455
S'en-gb,en;q=0.7,nl;q=0.3'
p1456
asbasbasbag69
(g85
g71
NtRp1457
(dp1458
g74
(dp1459
sg83
g1231
sg76
(lp1460
g69
(g90
g71
NtRp1461
(dp1462
g74
(dp1463
g94
g95
ssg83
g1457
sg76
(lp1464
S'http_connection'
p1465
asbag69
(g90
g71
NtRp1466
(dp1467
g74
(dp1468
g101
g102
ssg83
g1457
sg76
(lp1469
S':'
asbag69
(g90
g71
NtRp1470
(dp1471
g74
(dp1472
sg83
g1457
sg76
(lp1473
g69
(g70
g71
NtRp1474
(dp1475
g74
(dp1476
g82
I4
ssg83
g1470
sg76
(lp1477
S'keep-alive'
p1478
asbasbasbag69
(g85
g71
NtRp1479
(dp1480
g74
(dp1481
sg83
g1231
sg76
(lp1482
g69
(g90
g71
NtRp1483
(dp1484
g74
(dp1485
g94
g95
ssg83
g1479
sg76
(lp1486
S'http_cookie'
p1487
asbag69
(g90
g71
NtRp1488
(dp1489
g74
(dp1490
g101
g102
ssg83
g1479
sg76
(lp1491
S':'
asbag69
(g90
g71
NtRp1492
(dp1493
g74
(dp1494
sg83
g1479
sg76
(lp1495
g69
(g70
g71
NtRp1496
(dp1497
g74
(dp1498
g82
I4
ssg83
g1492
sg76
(lp1499
S'SessionID=943f5c2a38079802cb40146766ea3745903d6946; session_id_csrfme=127.0.0.1-f073d4ce-46d2-4325-88cf-864b84b91aac; session_id_welcome=127.0.0.1-ab206e97-1753-4b1c-8e63-9bebc92d5728; session_id_admin=127.0.0.1-98543859-0e70-44ac-831a-9d0e5b3171be; session_id_asvpwapp=127.0.0.1-dad6e9ab-5619-437d-a0e7-f036e62e3fed'
p1500
asbasbasbag69
(g85
g71
NtRp1501
(dp1502
g74
(dp1503
sg83
g1231
sg76
(lp1504
g69
(g90
g71
NtRp1505
(dp1506
g74
(dp1507
g94
g95
ssg83
g1501
sg76
(lp1508
S'http_dnt'
p1509
asbag69
(g90
g71
NtRp1510
(dp1511
g74
(dp1512
g101
g102
ssg83
g1501
sg76
(lp1513
S':'
asbag69
(g90
g71
NtRp1514
(dp1515
g74
(dp1516
sg83
g1501
sg76
(lp1517
g69
(g70
g71
NtRp1518
(dp1519
g74
(dp1520
g82
I4
ssg83
g1514
sg76
(lp1521
S'1'
asbasbasbag69
(g85
g71
NtRp1522
(dp1523
g74
(dp1524
sg83
g1231
sg76
(lp1525
g69
(g90
g71
NtRp1526
(dp1527
g74
(dp1528
g94
g95
ssg83
g1522
sg76
(lp1529
S'http_host'
p1530
asbag69
(g90
g71
NtRp1531
(dp1532
g74
(dp1533
g101
g102
ssg83
g1522
sg76
(lp1534
S':'
asbag69
(g90
g71
NtRp1535
(dp1536
g74
(dp1537
sg83
g1522
sg76
(lp1538
g69
(g70
g71
NtRp1539
(dp1540
g74
(dp1541
g82
I4
ssg83
g1535
sg76
(lp1542
S'localhost:8000'
p1543
asbasbasbag69
(g85
g71
NtRp1544
(dp1545
g74
(dp1546
sg83
g1231
sg76
(lp1547
g69
(g90
g71
NtRp1548
(dp1549
g74
(dp1550
g94
g95
ssg83
g1544
sg76
(lp1551
S'http_user_agent'
p1552
asbag69
(g90
g71
NtRp1553
(dp1554
g74
(dp1555
g101
g102
ssg83
g1544
sg76
(lp1556
S':'
asbag69
(g90
g71
NtRp1557
(dp1558
g74
(dp1559
sg83
g1544
sg76
(lp1560
g69
(g70
g71
NtRp1561
(dp1562
g74
(dp1563
g82
I4
ssg83
g1557
sg76
(lp1564
S'Mozilla/5.0 (X11; Linux x86_64; rv:16.0) Gecko/20100101 Firefox/16.0'
p1565
asbasbasbag69
(g85
g71
NtRp1566
(dp1567
g74
(dp1568
sg83
g1231
sg76
(lp1569
g69
(g90
g71
NtRp1570
(dp1571
g74
(dp1572
g94
g95
ssg83
g1566
sg76
(lp1573
S'is_jython'
p1574
asbag69
(g90
g71
NtRp1575
(dp1576
g74
(dp1577
g101
g102
ssg83
g1566
sg76
(lp1578
S':'
asbag69
(g90
g71
NtRp1579
(dp1580
g74
(dp1581
sg83
g1566
sg76
(lp1582
g69
(g70
g71
NtRp1583
(dp1584
g74
(dp1585
g82
I4
ssg83
g1579
sg76
(lp1586
g112
asbasbasbag69
(g85
g71
NtRp1587
(dp1588
g74
(dp1589
sg83
g1231
sg76
(lp1590
g69
(g90
g71
NtRp1591
(dp1592
g74
(dp1593
g94
g95
ssg83
g1587
sg76
(lp1594
S'is_pypy'
p1595
asbag69
(g90
g71
NtRp1596
(dp1597
g74
(dp1598
g101
g102
ssg83
g1587
sg76
(lp1599
S':'
asbag69
(g90
g71
NtRp1600
(dp1601
g74
(dp1602
sg83
g1587
sg76
(lp1603
g69
(g70
g71
NtRp1604
(dp1605
g74
(dp1606
g82
I4
ssg83
g1600
sg76
(lp1607
g112
asbasbasbag69
(g85
g71
NtRp1608
(dp1609
g74
(dp1610
sg83
g1231
sg76
(lp1611
g69
(g90
g71
NtRp1612
(dp1613
g74
(dp1614
g94
g95
ssg83
g1608
sg76
(lp1615
S'path_info'
p1616
asbag69
(g90
g71
NtRp1617
(dp1618
g74
(dp1619
g101
g102
ssg83
g1608
sg76
(lp1620
S':'
asbag69
(g90
g71
NtRp1621
(dp1622
g74
(dp1623
sg83
g1608
sg76
(lp1624
g69
(g70
g71
NtRp1625
(dp1626
g74
(dp1627
g82
I4
ssg83
g1621
sg76
(lp1628
S'/asvpwapp/default/index'
p1629
asbasbasbag69
(g85
g71
NtRp1630
(dp1631
g74
(dp1632
sg83
g1231
sg76
(lp1633
g69
(g90
g71
NtRp1634
(dp1635
g74
(dp1636
g94
g95
ssg83
g1630
sg76
(lp1637
S'query_string'
p1638
asbag69
(g90
g71
NtRp1639
(dp1640
g74
(dp1641
g101
g102
ssg83
g1630
sg76
(lp1642
S':'
asbag69
(g90
g71
NtRp1643
(dp1644
g74
(dp1645
sg83
g1630
sg76
(lp1646
g69
(g70
g71
NtRp1647
(dp1648
g74
(dp1649
g82
I4
ssg83
g1643
sg76
(lp1650
S''
asbasbasbag69
(g85
g71
NtRp1651
(dp1652
g74
(dp1653
sg83
g1231
sg76
(lp1654
g69
(g90
g71
NtRp1655
(dp1656
g74
(dp1657
g94
g95
ssg83
g1651
sg76
(lp1658
S'remote_addr'
p1659
asbag69
(g90
g71
NtRp1660
(dp1661
g74
(dp1662
g101
g102
ssg83
g1651
sg76
(lp1663
S':'
asbag69
(g90
g71
NtRp1664
(dp1665
g74
(dp1666
sg83
g1651
sg76
(lp1667
g69
(g70
g71
NtRp1668
(dp1669
g74
(dp1670
g82
I4
ssg83
g1664
sg76
(lp1671
g224
asbasbasbag69
(g85
g71
NtRp1672
(dp1673
g74
(dp1674
sg83
g1231
sg76
(lp1675
g69
(g90
g71
NtRp1676
(dp1677
g74
(dp1678
g94
g95
ssg83
g1672
sg76
(lp1679
S'remote_port'
p1680
asbag69
(g90
g71
NtRp1681
(dp1682
g74
(dp1683
g101
g102
ssg83
g1672
sg76
(lp1684
S':'
asbag69
(g90
g71
NtRp1685
(dp1686
g74
(dp1687
sg83
g1672
sg76
(lp1688
g69
(g70
g71
NtRp1689
(dp1690
g74
(dp1691
g82
I4
ssg83
g1685
sg76
(lp1692
S'38298'
p1693
asbasbasbag69
(g85
g71
NtRp1694
(dp1695
g74
(dp1696
sg83
g1231
sg76
(lp1697
g69
(g90
g71
NtRp1698
(dp1699
g74
(dp1700
g94
g95
ssg83
g1694
sg76
(lp1701
S'request_method'
p1702
asbag69
(g90
g71
NtRp1703
(dp1704
g74
(dp1705
g101
g102
ssg83
g1694
sg76
(lp1706
S':'
asbag69
(g90
g71
NtRp1707
(dp1708
g74
(dp1709
sg83
g1694
sg76
(lp1710
g69
(g70
g71
NtRp1711
(dp1712
g74
(dp1713
g82
I4
ssg83
g1707
sg76
(lp1714
S'GET'
p1715
asbasbasbag69
(g85
g71
NtRp1716
(dp1717
g74
(dp1718
sg83
g1231
sg76
(lp1719
g69
(g90
g71
NtRp1720
(dp1721
g74
(dp1722
g94
g95
ssg83
g1716
sg76
(lp1723
S'request_uri'
p1724
asbag69
(g90
g71
NtRp1725
(dp1726
g74
(dp1727
g101
g102
ssg83
g1716
sg76
(lp1728
S':'
asbag69
(g90
g71
NtRp1729
(dp1730
g74
(dp1731
sg83
g1716
sg76
(lp1732
g69
(g70
g71
NtRp1733
(dp1734
g74
(dp1735
g82
I4
ssg83
g1729
sg76
(lp1736
g1629
asbasbasbag69
(g85
g71
NtRp1737
(dp1738
g74
(dp1739
sg83
g1231
sg76
(lp1740
g69
(g90
g71
NtRp1741
(dp1742
g74
(dp1743
g94
g95
ssg83
g1737
sg76
(lp1744
S'script_name'
p1745
asbag69
(g90
g71
NtRp1746
(dp1747
g74
(dp1748
g101
g102
ssg83
g1737
sg76
(lp1749
S':'
asbag69
(g90
g71
NtRp1750
(dp1751
g74
(dp1752
sg83
g1737
sg76
(lp1753
g69
(g70
g71
NtRp1754
(dp1755
g74
(dp1756
g82
I4
ssg83
g1750
sg76
(lp1757
S''
asbasbasbag69
(g85
g71
NtRp1758
(dp1759
g74
(dp1760
sg83
g1231
sg76
(lp1761
g69
(g90
g71
NtRp1762
(dp1763
g74
(dp1764
g94
g95
ssg83
g1758
sg76
(lp1765
S'server_name'
p1766
asbag69
(g90
g71
NtRp1767
(dp1768
g74
(dp1769
g101
g102
ssg83
g1758
sg76
(lp1770
S':'
asbag69
(g90
g71
NtRp1771
(dp1772
g74
(dp1773
sg83
g1758
sg76
(lp1774
g69
(g70
g71
NtRp1775
(dp1776
g74
(dp1777
g82
I4
ssg83
g1771
sg76
(lp1778
S'i5'
p1779
asbasbasbag69
(g85
g71
NtRp1780
(dp1781
g74
(dp1782
sg83
g1231
sg76
(lp1783
g69
(g90
g71
NtRp1784
(dp1785
g74
(dp1786
g94
g95
ssg83
g1780
sg76
(lp1787
S'server_port'
p1788
asbag69
(g90
g71
NtRp1789
(dp1790
g74
(dp1791
g101
g102
ssg83
g1780
sg76
(lp1792
S':'
asbag69
(g90
g71
NtRp1793
(dp1794
g74
(dp1795
sg83
g1780
sg76
(lp1796
g69
(g70
g71
NtRp1797
(dp1798
g74
(dp1799
g82
I4
ssg83
g1793
sg76
(lp1800
S'8000'
p1801
asbasbasbag69
(g85
g71
NtRp1802
(dp1803
g74
(dp1804
sg83
g1231
sg76
(lp1805
g69
(g90
g71
NtRp1806
(dp1807
g74
(dp1808
g94
g95
ssg83
g1802
sg76
(lp1809
S'server_protocol'
p1810
asbag69
(g90
g71
NtRp1811
(dp1812
g74
(dp1813
g101
g102
ssg83
g1802
sg76
(lp1814
S':'
asbag69
(g90
g71
NtRp1815
(dp1816
g74
(dp1817
sg83
g1802
sg76
(lp1818
g69
(g70
g71
NtRp1819
(dp1820
g74
(dp1821
g82
I4
ssg83
g1815
sg76
(lp1822
S'HTTP/1.1'
p1823
asbasbasbag69
(g85
g71
NtRp1824
(dp1825
g74
(dp1826
sg83
g1231
sg76
(lp1827
g69
(g90
g71
NtRp1828
(dp1829
g74
(dp1830
g94
g95
ssg83
g1824
sg76
(lp1831
S'server_software'
p1832
asbag69
(g90
g71
NtRp1833
(dp1834
g74
(dp1835
g101
g102
ssg83
g1824
sg76
(lp1836
S':'
asbag69
(g90
g71
NtRp1837
(dp1838
g74
(dp1839
sg83
g1824
sg76
(lp1840
g69
(g70
g71
NtRp1841
(dp1842
g74
(dp1843
g82
I4
ssg83
g1837
sg76
(lp1844
S'Rocket 1.2.4'
p1845
asbasbasbag69
(g85
g71
NtRp1846
(dp1847
g74
(dp1848
sg83
g1231
sg76
(lp1849
g69
(g90
g71
NtRp1850
(dp1851
g74
(dp1852
g94
g95
ssg83
g1846
sg76
(lp1853
S'web2py_crontype'
p1854
asbag69
(g90
g71
NtRp1855
(dp1856
g74
(dp1857
g101
g102
ssg83
g1846
sg76
(lp1858
S':'
asbag69
(g90
g71
NtRp1859
(dp1860
g74
(dp1861
sg83
g1846
sg76
(lp1862
g69
(g70
g71
NtRp1863
(dp1864
g74
(dp1865
g82
I4
ssg83
g1859
sg76
(lp1866
S'hard'
p1867
asbasbasbag69
(g85
g71
NtRp1868
(dp1869
g74
(dp1870
sg83
g1231
sg76
(lp1871
g69
(g90
g71
NtRp1872
(dp1873
g74
(dp1874
g94
g95
ssg83
g1868
sg76
(lp1875
S'web2py_path'
p1876
asbag69
(g90
g71
NtRp1877
(dp1878
g74
(dp1879
g101
g102
ssg83
g1868
sg76
(lp1880
S':'
asbag69
(g90
g71
NtRp1881
(dp1882
g74
(dp1883
sg83
g1868
sg76
(lp1884
g69
(g70
g71
NtRp1885
(dp1886
g74
(dp1887
g82
I4
ssg83
g1881
sg76
(lp1888
g1278
asbasbasbag69
(g85
g71
NtRp1889
(dp1890
g74
(dp1891
sg83
g1231
sg76
(lp1892
g69
(g90
g71
NtRp1893
(dp1894
g74
(dp1895
g94
g95
ssg83
g1889
sg76
(lp1896
S'web2py_version'
p1897
asbag69
(g90
g71
NtRp1898
(dp1899
g74
(dp1900
g101
g102
ssg83
g1889
sg76
(lp1901
S':'
asbag69
(g90
g71
NtRp1902
(dp1903
g74
(dp1904
sg83
g1889
sg76
(lp1905
g69
(g70
g71
NtRp1906
(dp1907
g74
(dp1908
g82
I4
ssg83
g1902
sg76
(lp1909
g69
(g78
g71
NtRp1910
(dp1911
g74
(dp1912
g82
I3
ssg83
Nsg76
(lp1913
g69
(g85
g71
NtRp1914
(dp1915
g74
(dp1916
sg83
g1910
sg76
(lp1917
g69
(g90
g71
NtRp1918
(dp1919
g74
(dp1920
sg83
g1914
sg76
(lp1921
g69
(g70
g71
NtRp1922
(dp1923
g74
(dp1924
g82
I3
ssg83
g1918
sg76
(lp1925
S'2'
asbasbasbag69
(g85
g71
NtRp1926
(dp1927
g74
(dp1928
sg83
g1910
sg76
(lp1929
g69
(g90
g71
NtRp1930
(dp1931
g74
(dp1932
sg83
g1926
sg76
(lp1933
g69
(g70
g71
NtRp1934
(dp1935
g74
(dp1936
g82
I3
ssg83
g1930
sg76
(lp1937
S'0'
asbasbasbag69
(g85
g71
NtRp1938
(dp1939
g74
(dp1940
sg83
g1910
sg76
(lp1941
g69
(g90
g71
NtRp1942
(dp1943
g74
(dp1944
sg83
g1938
sg76
(lp1945
g69
(g70
g71
NtRp1946
(dp1947
g74
(dp1948
g82
I3
ssg83
g1942
sg76
(lp1949
S'9'
asbasbasbag69
(g85
g71
NtRp1950
(dp1951
g74
(dp1952
sg83
g1910
sg76
(lp1953
g69
(g90
g71
NtRp1954
(dp1955
g74
(dp1956
sg83
g1950
sg76
(lp1957
g69
(g70
g71
NtRp1958
(dp1959
g74
(dp1960
g82
I3
ssg83
g1954
sg76
(lp1961
S'datetime.datetime(2012, 9, 13, 23, 51, 30)'
p1962
asbasbasbag69
(g85
g71
NtRp1963
(dp1964
g74
(dp1965
sg83
g1910
sg76
(lp1966
g69
(g90
g71
NtRp1967
(dp1968
g74
(dp1969
sg83
g1963
sg76
(lp1970
g69
(g70
g71
NtRp1971
(dp1972
g74
(dp1973
g82
I3
ssg83
g1967
sg76
(lp1974
S'stable'
p1975
asbasbasbasbasbasbasbag69
(g85
g71
NtRp1976
(dp1977
g74
(dp1978
sg83
g1231
sg76
(lp1979
g69
(g90
g71
NtRp1980
(dp1981
g74
(dp1982
g94
g95
ssg83
g1976
sg76
(lp1983
S'wsgi_errors'
p1984
asbag69
(g90
g71
NtRp1985
(dp1986
g74
(dp1987
g101
g102
ssg83
g1976
sg76
(lp1988
S':'
asbag69
(g90
g71
NtRp1989
(dp1990
g74
(dp1991
sg83
g1976
sg76
(lp1992
g69
(g70
g71
NtRp1993
(dp1994
g74
(dp1995
g82
I4
ssg83
g1989
sg76
(lp1996
S"<open file '<stderr>', mode 'w' at 0x7fdca635c270>"
p1997
asbasbasbag69
(g85
g71
NtRp1998
(dp1999
g74
(dp2000
sg83
g1231
sg76
(lp2001
g69
(g90
g71
NtRp2002
(dp2003
g74
(dp2004
g94
g95
ssg83
g1998
sg76
(lp2005
S'wsgi_file_wrapper'
p2006
asbag69
(g90
g71
NtRp2007
(dp2008
g74
(dp2009
g101
g102
ssg83
g1998
sg76
(lp2010
S':'
asbag69
(g90
g71
NtRp2011
(dp2012
g74
(dp2013
sg83
g1998
sg76
(lp2014
g69
(g70
g71
NtRp2015
(dp2016
g74
(dp2017
g82
I4
ssg83
g2011
sg76
(lp2018
S'<class wsgiref.util.FileWrapper at 0x1de2c18>'
p2019
asbasbasbag69
(g85
g71
NtRp2020
(dp2021
g74
(dp2022
sg83
g1231
sg76
(lp2023
g69
(g90
g71
NtRp2024
(dp2025
g74
(dp2026
g94
g95
ssg83
g2020
sg76
(lp2027
S'wsgi_input'
p2028
asbag69
(g90
g71
NtRp2029
(dp2030
g74
(dp2031
g101
g102
ssg83
g2020
sg76
(lp2032
S':'
asbag69
(g90
g71
NtRp2033
(dp2034
g74
(dp2035
sg83
g2020
sg76
(lp2036
g69
(g70
g71
NtRp2037
(dp2038
g74
(dp2039
g82
I4
ssg83
g2033
sg76
(lp2040
S'<socket._fileobject object at 0x7fdc9028bcd0>'
p2041
asbasbasbag69
(g85
g71
NtRp2042
(dp2043
g74
(dp2044
sg83
g1231
sg76
(lp2045
g69
(g90
g71
NtRp2046
(dp2047
g74
(dp2048
g94
g95
ssg83
g2042
sg76
(lp2049
S'wsgi_multiprocess'
p2050
asbag69
(g90
g71
NtRp2051
(dp2052
g74
(dp2053
g101
g102
ssg83
g2042
sg76
(lp2054
S':'
asbag69
(g90
g71
NtRp2055
(dp2056
g74
(dp2057
sg83
g2042
sg76
(lp2058
g69
(g70
g71
NtRp2059
(dp2060
g74
(dp2061
g82
I4
ssg83
g2055
sg76
(lp2062
g112
asbasbasbag69
(g85
g71
NtRp2063
(dp2064
g74
(dp2065
sg83
g1231
sg76
(lp2066
g69
(g90
g71
NtRp2067
(dp2068
g74
(dp2069
g94
g95
ssg83
g2063
sg76
(lp2070
S'wsgi_multithread'
p2071
asbag69
(g90
g71
NtRp2072
(dp2073
g74
(dp2074
g101
g102
ssg83
g2063
sg76
(lp2075
S':'
asbag69
(g90
g71
NtRp2076
(dp2077
g74
(dp2078
sg83
g2063
sg76
(lp2079
g69
(g70
g71
NtRp2080
(dp2081
g74
(dp2082
g82
I4
ssg83
g2076
sg76
(lp2083
S'True'
p2084
asbasbasbag69
(g85
g71
NtRp2085
(dp2086
g74
(dp2087
sg83
g1231
sg76
(lp2088
g69
(g90
g71
NtRp2089
(dp2090
g74
(dp2091
g94
g95
ssg83
g2085
sg76
(lp2092
S'wsgi_run_once'
p2093
asbag69
(g90
g71
NtRp2094
(dp2095
g74
(dp2096
g101
g102
ssg83
g2085
sg76
(lp2097
S':'
asbag69
(g90
g71
NtRp2098
(dp2099
g74
(dp2100
sg83
g2085
sg76
(lp2101
g69
(g70
g71
NtRp2102
(dp2103
g74
(dp2104
g82
I4
ssg83
g2098
sg76
(lp2105
g112
asbasbasbag69
(g85
g71
NtRp2106
(dp2107
g74
(dp2108
sg83
g1231
sg76
(lp2109
g69
(g90
g71
NtRp2110
(dp2111
g74
(dp2112
g94
g95
ssg83
g2106
sg76
(lp2113
S'wsgi_url_scheme'
p2114
asbag69
(g90
g71
NtRp2115
(dp2116
g74
(dp2117
g101
g102
ssg83
g2106
sg76
(lp2118
S':'
asbag69
(g90
g71
NtRp2119
(dp2120
g74
(dp2121
sg83
g2106
sg76
(lp2122
g69
(g70
g71
NtRp2123
(dp2124
g74
(dp2125
g82
I4
ssg83
g2119
sg76
(lp2126
S'http'
p2127
asbasbasbag69
(g85
g71
NtRp2128
(dp2129
g74
(dp2130
sg83
g1231
sg76
(lp2131
g69
(g90
g71
NtRp2132
(dp2133
g74
(dp2134
g94
g95
ssg83
g2128
sg76
(lp2135
S'wsgi_version'
p2136
asbag69
(g90
g71
NtRp2137
(dp2138
g74
(dp2139
g101
g102
ssg83
g2128
sg76
(lp2140
S':'
asbag69
(g90
g71
NtRp2141
(dp2142
g74
(dp2143
sg83
g2128
sg76
(lp2144
g69
(g70
g71
NtRp2145
(dp2146
g74
(dp2147
g82
I4
ssg83
g2141
sg76
(lp2148
g69
(g78
g71
NtRp2149
(dp2150
g74
(dp2151
g82
I3
ssg83
Nsg76
(lp2152
g69
(g85
g71
NtRp2153
(dp2154
g74
(dp2155
sg83
g2149
sg76
(lp2156
g69
(g90
g71
NtRp2157
(dp2158
g74
(dp2159
sg83
g2153
sg76
(lp2160
g69
(g70
g71
NtRp2161
(dp2162
g74
(dp2163
g82
I3
ssg83
g2157
sg76
(lp2164
S'1'
asbasbasbag69
(g85
g71
NtRp2165
(dp2166
g74
(dp2167
sg83
g2149
sg76
(lp2168
g69
(g90
g71
NtRp2169
(dp2170
g74
(dp2171
sg83
g2165
sg76
(lp2172
g69
(g70
g71
NtRp2173
(dp2174
g74
(dp2175
g82
I3
ssg83
g2169
sg76
(lp2176
S'0'
asbasbasbasbasbasbasbasbasbasbasbag69
(g85
g71
NtRp2177
(dp2178
g74
(dp2179
sg83
g79
sg76
(lp2180
g69
(g90
g71
NtRp2181
(dp2182
g74
(dp2183
g94
g95
ssg83
g2177
sg76
(lp2184
S'extension'
p2185
asbag69
(g90
g71
NtRp2186
(dp2187
g74
(dp2188
g101
g102
ssg83
g2177
sg76
(lp2189
S':'
asbag69
(g90
g71
NtRp2190
(dp2191
g74
(dp2192
sg83
g2177
sg76
(lp2193
g69
(g70
g71
NtRp2194
(dp2195
g74
(dp2196
g82
I5
ssg83
g2190
sg76
(lp2197
S'html'
p2198
asbasbasbag69
(g85
g71
NtRp2199
(dp2200
g74
(dp2201
sg83
g79
sg76
(lp2202
g69
(g90
g71
NtRp2203
(dp2204
g74
(dp2205
g94
g95
ssg83
g2199
sg76
(lp2206
S'folder'
p2207
asbag69
(g90
g71
NtRp2208
(dp2209
g74
(dp2210
g101
g102
ssg83
g2199
sg76
(lp2211
S':'
asbag69
(g90
g71
NtRp2212
(dp2213
g74
(dp2214
sg83
g2199
sg76
(lp2215
g69
(g70
g71
NtRp2216
(dp2217
g74
(dp2218
g82
I5
ssg83
g2212
sg76
(lp2219
S'/media/work/home/dev/python/asvpwapp/web2py/applications/asvpwapp/'
p2220
asbasbasbag69
(g85
g71
NtRp2221
(dp2222
g74
(dp2223
sg83
g79
sg76
(lp2224
g69
(g90
g71
NtRp2225
(dp2226
g74
(dp2227
g94
g95
ssg83
g2221
sg76
(lp2228
S'function'
p2229
asbag69
(g90
g71
NtRp2230
(dp2231
g74
(dp2232
g101
g102
ssg83
g2221
sg76
(lp2233
S':'
asbag69
(g90
g71
NtRp2234
(dp2235
g74
(dp2236
sg83
g2221
sg76
(lp2237
g69
(g70
g71
NtRp2238
(dp2239
g74
(dp2240
g82
I5
ssg83
g2234
sg76
(lp2241
S'index'
p2242
asbasbasbag69
(g85
g71
NtRp2243
(dp2244
g74
(dp2245
sg83
g79
sg76
(lp2246
g69
(g90
g71
NtRp2247
(dp2248
g74
(dp2249
g94
g95
ssg83
g2243
sg76
(lp2250
S'get_vars'
p2251
asbag69
(g90
g71
NtRp2252
(dp2253
g74
(dp2254
g101
g102
ssg83
g2243
sg76
(lp2255
S':'
asbag69
(g90
g71
NtRp2256
(dp2257
g74
(dp2258
sg83
g2243
sg76
(lp2259
g69
(g70
g71
NtRp2260
(dp2261
g74
(dp2262
g82
I5
ssg83
g2256
sg76
(lp2263
g69
(g78
g71
NtRp2264
(dp2265
g74
(dp2266
g82
I4
ssg83
Nsg76
(lp2267
sbasbasbasbag69
(g85
g71
NtRp2268
(dp2269
g74
(dp2270
sg83
g79
sg76
(lp2271
g69
(g90
g71
NtRp2272
(dp2273
g74
(dp2274
g94
g95
ssg83
g2268
sg76
(lp2275
S'global_settings'
p2276
asbag69
(g90
g71
NtRp2277
(dp2278
g74
(dp2279
g101
g102
ssg83
g2268
sg76
(lp2280
S':'
asbag69
(g90
g71
NtRp2281
(dp2282
g74
(dp2283
sg83
g2268
sg76
(lp2284
g69
(g70
g71
NtRp2285
(dp2286
g74
(dp2287
g82
I5
ssg83
g2281
sg76
(lp2288
g69
(g78
g71
NtRp2289
(dp2290
g74
(dp2291
g82
I4
ssg83
Nsg76
(lp2292
g69
(g85
g71
NtRp2293
(dp2294
g74
(dp2295
sg83
g2289
sg76
(lp2296
g69
(g90
g71
NtRp2297
(dp2298
g74
(dp2299
g94
g95
ssg83
g2293
sg76
(lp2300
g1243
asbag69
(g90
g71
NtRp2301
(dp2302
g74
(dp2303
g101
g102
ssg83
g2293
sg76
(lp2304
S':'
asbag69
(g90
g71
NtRp2305
(dp2306
g74
(dp2307
sg83
g2293
sg76
(lp2308
g69
(g70
g71
NtRp2309
(dp2310
g74
(dp2311
g82
I4
ssg83
g2305
sg76
(lp2312
S"set(['/media/work/home/dev/python/asvpwapp/web2py/applications/welcome/', '/media/work/home/dev/python/asvpwapp/web2py/applications/asvpwapp/', '/media/work/home/dev/python/asvpwapp/web2py/applications/admin/'])"
p2313
asbasbasbag69
(g85
g71
NtRp2314
(dp2315
g74
(dp2316
sg83
g2289
sg76
(lp2317
g69
(g90
g71
NtRp2318
(dp2319
g74
(dp2320
g94
g95
ssg83
g2314
sg76
(lp2321
g1265
asbag69
(g90
g71
NtRp2322
(dp2323
g74
(dp2324
g101
g102
ssg83
g2314
sg76
(lp2325
S':'
asbag69
(g90
g71
NtRp2326
(dp2327
g74
(dp2328
sg83
g2314
sg76
(lp2329
g69
(g70
g71
NtRp2330
(dp2331
g74
(dp2332
g82
I4
ssg83
g2326
sg76
(lp2333
g1278
asbasbasbag69
(g85
g71
NtRp2334
(dp2335
g74
(dp2336
sg83
g2289
sg76
(lp2337
g69
(g90
g71
NtRp2338
(dp2339
g74
(dp2340
g94
g95
ssg83
g2334
sg76
(lp2341
g1287
asbag69
(g90
g71
NtRp2342
(dp2343
g74
(dp2344
g101
g102
ssg83
g2334
sg76
(lp2345
S':'
asbag69
(g90
g71
NtRp2346
(dp2347
g74
(dp2348
sg83
g2334
sg76
(lp2349
g69
(g70
g71
NtRp2350
(dp2351
g74
(dp2352
g82
I4
ssg83
g2346
sg76
(lp2353
g69
(g78
g71
NtRp2354
(dp2355
g74
(dp2356
g82
I3
ssg83
Nsg76
(lp2357
sbasbasbasbag69
(g85
g71
NtRp2358
(dp2359
g74
(dp2360
sg83
g2289
sg76
(lp2361
g69
(g90
g71
NtRp2362
(dp2363
g74
(dp2364
g94
g95
ssg83
g2358
sg76
(lp2365
g1312
asbag69
(g90
g71
NtRp2366
(dp2367
g74
(dp2368
g101
g102
ssg83
g2358
sg76
(lp2369
S':'
asbag69
(g90
g71
NtRp2370
(dp2371
g74
(dp2372
sg83
g2358
sg76
(lp2373
g69
(g70
g71
NtRp2374
(dp2375
g74
(dp2376
g82
I4
ssg83
g2370
sg76
(lp2377
S"<Values at 0x1d9d5a8: {'verbose': False, 'ip': '127.0.0.1', 'with_scheduler': False, 'ips': [], 'shutdown_timeout': 5, 'taskbar': False, 'port': 8000, 'maxthreads': None, 'softcron': False, 'server_name': 'i5', 'bpython': False, 'nogui': False, 'nocron': False, 'extcron': False, 'run_system_tests': False, 'test': None, 'folder': '/media/work/home/dev/python/asvpwapp/web2py', 'config': '', 'import_models': False, 'winservice': '', 'shell': None, 'run': '', 'log_filename': 'httpserver.log', 'debuglevel': 30, 'args': [''], 'socket_timeout': 5, 'ssl_ca_certificate': None, 'scheduler': None, 'profiler_filename': None, 'ssl_private_key': '', 'scheduler_groups': None, 'password': 'adm', 'request_queue_size': 5, 'ssl_certificate': '', 'cronjob': False, 'numthreads': None, 'quiet': False, 'interfaces': None, 'minthreads': None, 'timeout': 10, 'plain': False, 'nobanner': False, 'pid_filename': 'httpserver.pid'}>"
p2378
asbasbasbag69
(g85
g71
NtRp2379
(dp2380
g74
(dp2381
sg83
g2289
sg76
(lp2382
g69
(g90
g71
NtRp2383
(dp2384
g74
(dp2385
g94
g95
ssg83
g2379
sg76
(lp2386
g1334
asbag69
(g90
g71
NtRp2387
(dp2388
g74
(dp2389
g101
g102
ssg83
g2379
sg76
(lp2390
S':'
asbag69
(g90
g71
NtRp2391
(dp2392
g74
(dp2393
sg83
g2379
sg76
(lp2394
g69
(g70
g71
NtRp2395
(dp2396
g74
(dp2397
g82
I4
ssg83
g2391
sg76
(lp2398
S'set([])'
p2399
asbasbasbag69
(g85
g71
NtRp2400
(dp2401
g74
(dp2402
sg83
g2289
sg76
(lp2403
g69
(g90
g71
NtRp2404
(dp2405
g74
(dp2406
g94
g95
ssg83
g2400
sg76
(lp2407
g1356
asbag69
(g90
g71
NtRp2408
(dp2409
g74
(dp2410
g101
g102
ssg83
g2400
sg76
(lp2411
S':'
asbag69
(g90
g71
NtRp2412
(dp2413
g74
(dp2414
sg83
g2400
sg76
(lp2415
g69
(g70
g71
NtRp2416
(dp2417
g74
(dp2418
g82
I4
ssg83
g2412
sg76
(lp2419
g112
asbasbasbag69
(g85
g71
NtRp2420
(dp2421
g74
(dp2422
sg83
g2289
sg76
(lp2423
g69
(g90
g71
NtRp2424
(dp2425
g74
(dp2426
g94
g95
ssg83
g2420
sg76
(lp2427
g1377
asbag69
(g90
g71
NtRp2428
(dp2429
g74
(dp2430
g101
g102
ssg83
g2420
sg76
(lp2431
S':'
asbag69
(g90
g71
NtRp2432
(dp2433
g74
(dp2434
sg83
g2420
sg76
(lp2435
g69
(g70
g71
NtRp2436
(dp2437
g74
(dp2438
g82
I4
ssg83
g2432
sg76
(lp2439
g1390
asbasbasbag69
(g85
g71
NtRp2440
(dp2441
g74
(dp2442
sg83
g2289
sg76
(lp2443
g69
(g90
g71
NtRp2444
(dp2445
g74
(dp2446
g94
g95
ssg83
g2440
sg76
(lp2447
g1574
asbag69
(g90
g71
NtRp2448
(dp2449
g74
(dp2450
g101
g102
ssg83
g2440
sg76
(lp2451
S':'
asbag69
(g90
g71
NtRp2452
(dp2453
g74
(dp2454
sg83
g2440
sg76
(lp2455
g69
(g70
g71
NtRp2456
(dp2457
g74
(dp2458
g82
I4
ssg83
g2452
sg76
(lp2459
g112
asbasbasbag69
(g85
g71
NtRp2460
(dp2461
g74
(dp2462
sg83
g2289
sg76
(lp2463
g69
(g90
g71
NtRp2464
(dp2465
g74
(dp2466
g94
g95
ssg83
g2460
sg76
(lp2467
g1595
asbag69
(g90
g71
NtRp2468
(dp2469
g74
(dp2470
g101
g102
ssg83
g2460
sg76
(lp2471
S':'
asbag69
(g90
g71
NtRp2472
(dp2473
g74
(dp2474
sg83
g2460
sg76
(lp2475
g69
(g70
g71
NtRp2476
(dp2477
g74
(dp2478
g82
I4
ssg83
g2472
sg76
(lp2479
g112
asbasbasbag69
(g85
g71
NtRp2480
(dp2481
g74
(dp2482
sg83
g2289
sg76
(lp2483
g69
(g90
g71
NtRp2484
(dp2485
g74
(dp2486
g94
g95
ssg83
g2480
sg76
(lp2487
g1854
asbag69
(g90
g71
NtRp2488
(dp2489
g74
(dp2490
g101
g102
ssg83
g2480
sg76
(lp2491
S':'
asbag69
(g90
g71
NtRp2492
(dp2493
g74
(dp2494
sg83
g2480
sg76
(lp2495
g69
(g70
g71
NtRp2496
(dp2497
g74
(dp2498
g82
I4
ssg83
g2492
sg76
(lp2499
g1867
asbasbasbag69
(g85
g71
NtRp2500
(dp2501
g74
(dp2502
sg83
g2289
sg76
(lp2503
g69
(g90
g71
NtRp2504
(dp2505
g74
(dp2506
g94
g95
ssg83
g2500
sg76
(lp2507
g1897
asbag69
(g90
g71
NtRp2508
(dp2509
g74
(dp2510
g101
g102
ssg83
g2500
sg76
(lp2511
S':'
asbag69
(g90
g71
NtRp2512
(dp2513
g74
(dp2514
sg83
g2500
sg76
(lp2515
g69
(g70
g71
NtRp2516
(dp2517
g74
(dp2518
g82
I4
ssg83
g2512
sg76
(lp2519
g69
(g78
g71
NtRp2520
(dp2521
g74
(dp2522
g82
I3
ssg83
Nsg76
(lp2523
g69
(g85
g71
NtRp2524
(dp2525
g74
(dp2526
sg83
g2520
sg76
(lp2527
g69
(g90
g71
NtRp2528
(dp2529
g74
(dp2530
sg83
g2524
sg76
(lp2531
g69
(g70
g71
NtRp2532
(dp2533
g74
(dp2534
g82
I3
ssg83
g2528
sg76
(lp2535
S'2'
asbasbasbag69
(g85
g71
NtRp2536
(dp2537
g74
(dp2538
sg83
g2520
sg76
(lp2539
g69
(g90
g71
NtRp2540
(dp2541
g74
(dp2542
sg83
g2536
sg76
(lp2543
g69
(g70
g71
NtRp2544
(dp2545
g74
(dp2546
g82
I3
ssg83
g2540
sg76
(lp2547
S'0'
asbasbasbag69
(g85
g71
NtRp2548
(dp2549
g74
(dp2550
sg83
g2520
sg76
(lp2551
g69
(g90
g71
NtRp2552
(dp2553
g74
(dp2554
sg83
g2548
sg76
(lp2555
g69
(g70
g71
NtRp2556
(dp2557
g74
(dp2558
g82
I3
ssg83
g2552
sg76
(lp2559
S'9'
asbasbasbag69
(g85
g71
NtRp2560
(dp2561
g74
(dp2562
sg83
g2520
sg76
(lp2563
g69
(g90
g71
NtRp2564
(dp2565
g74
(dp2566
sg83
g2560
sg76
(lp2567
g69
(g70
g71
NtRp2568
(dp2569
g74
(dp2570
g82
I3
ssg83
g2564
sg76
(lp2571
S'datetime.datetime(2012, 9, 13, 23, 51, 30)'
p2572
asbasbasbag69
(g85
g71
NtRp2573
(dp2574
g74
(dp2575
sg83
g2520
sg76
(lp2576
g69
(g90
g71
NtRp2577
(dp2578
g74
(dp2579
sg83
g2573
sg76
(lp2580
g69
(g70
g71
NtRp2581
(dp2582
g74
(dp2583
g82
I3
ssg83
g2577
sg76
(lp2584
g1975
asbasbasbasbasbasbasbasbasbasbasbag69
(g85
g71
NtRp2585
(dp2586
g74
(dp2587
sg83
g79
sg76
(lp2588
g69
(g90
g71
NtRp2589
(dp2590
g74
(dp2591
g94
g95
ssg83
g2585
sg76
(lp2592
S'is_https'
p2593
asbag69
(g90
g71
NtRp2594
(dp2595
g74
(dp2596
g101
g102
ssg83
g2585
sg76
(lp2597
S':'
asbag69
(g90
g71
NtRp2598
(dp2599
g74
(dp2600
sg83
g2585
sg76
(lp2601
g69
(g70
g71
NtRp2602
(dp2603
g74
(dp2604
g82
I5
ssg83
g2598
sg76
(lp2605
g112
asbasbasbag69
(g85
g71
NtRp2606
(dp2607
g74
(dp2608
sg83
g79
sg76
(lp2609
g69
(g90
g71
NtRp2610
(dp2611
g74
(dp2612
g94
g95
ssg83
g2606
sg76
(lp2613
S'is_local'
p2614
asbag69
(g90
g71
NtRp2615
(dp2616
g74
(dp2617
g101
g102
ssg83
g2606
sg76
(lp2618
S':'
asbag69
(g90
g71
NtRp2619
(dp2620
g74
(dp2621
sg83
g2606
sg76
(lp2622
g69
(g70
g71
NtRp2623
(dp2624
g74
(dp2625
g82
I5
ssg83
g2619
sg76
(lp2626
g2084
asbasbasbag69
(g85
g71
NtRp2627
(dp2628
g74
(dp2629
sg83
g79
sg76
(lp2630
g69
(g90
g71
NtRp2631
(dp2632
g74
(dp2633
g94
g95
ssg83
g2627
sg76
(lp2634
S'is_restful'
p2635
asbag69
(g90
g71
NtRp2636
(dp2637
g74
(dp2638
g101
g102
ssg83
g2627
sg76
(lp2639
S':'
asbag69
(g90
g71
NtRp2640
(dp2641
g74
(dp2642
sg83
g2627
sg76
(lp2643
g69
(g70
g71
NtRp2644
(dp2645
g74
(dp2646
g82
I5
ssg83
g2640
sg76
(lp2647
g112
asbasbasbag69
(g85
g71
NtRp2648
(dp2649
g74
(dp2650
sg83
g79
sg76
(lp2651
g69
(g90
g71
NtRp2652
(dp2653
g74
(dp2654
g94
g95
ssg83
g2648
sg76
(lp2655
S'now'
p2656
asbag69
(g90
g71
NtRp2657
(dp2658
g74
(dp2659
g101
g102
ssg83
g2648
sg76
(lp2660
S':'
asbag69
(g90
g71
NtRp2661
(dp2662
g74
(dp2663
sg83
g2648
sg76
(lp2664
g69
(g70
g71
NtRp2665
(dp2666
g74
(dp2667
g82
I5
ssg83
g2661
sg76
(lp2668
S'datetime.datetime(2012, 11, 7, 22, 15, 56, 45776)'
p2669
asbasbasbag69
(g85
g71
NtRp2670
(dp2671
g74
(dp2672
sg83
g79
sg76
(lp2673
g69
(g90
g71
NtRp2674
(dp2675
g74
(dp2676
g94
g95
ssg83
g2670
sg76
(lp2677
S'post_vars'
p2678
asbag69
(g90
g71
NtRp2679
(dp2680
g74
(dp2681
g101
g102
ssg83
g2670
sg76
(lp2682
S':'
asbag69
(g90
g71
NtRp2683
(dp2684
g74
(dp2685
sg83
g2670
sg76
(lp2686
g69
(g70
g71
NtRp2687
(dp2688
g74
(dp2689
g82
I5
ssg83
g2683
sg76
(lp2690
g69
(g78
g71
NtRp2691
(dp2692
g74
(dp2693
g82
I4
ssg83
Nsg76
(lp2694
sbasbasbasbag69
(g85
g71
NtRp2695
(dp2696
g74
(dp2697
sg83
g79
sg76
(lp2698
g69
(g90
g71
NtRp2699
(dp2700
g74
(dp2701
g94
g95
ssg83
g2695
sg76
(lp2702
S'raw_args'
p2703
asbag69
(g90
g71
NtRp2704
(dp2705
g74
(dp2706
g101
g102
ssg83
g2695
sg76
(lp2707
S':'
asbag69
(g90
g71
NtRp2708
(dp2709
g74
(dp2710
sg83
g2695
sg76
(lp2711
g69
(g70
g71
NtRp2712
(dp2713
g74
(dp2714
g82
I5
ssg83
g2708
sg76
(lp2715
S'None'
p2716
asbasbasbag69
(g85
g71
NtRp2717
(dp2718
g74
(dp2719
sg83
g79
sg76
(lp2720
g69
(g90
g71
NtRp2721
(dp2722
g74
(dp2723
g94
g95
ssg83
g2717
sg76
(lp2724
S'raw_extension'
p2725
asbag69
(g90
g71
NtRp2726
(dp2727
g74
(dp2728
g101
g102
ssg83
g2717
sg76
(lp2729
S':'
asbag69
(g90
g71
NtRp2730
(dp2731
g74
(dp2732
sg83
g2717
sg76
(lp2733
g69
(g70
g71
NtRp2734
(dp2735
g74
(dp2736
g82
I5
ssg83
g2730
sg76
(lp2737
S'None'
p2738
asbasbasbag69
(g85
g71
NtRp2739
(dp2740
g74
(dp2741
sg83
g79
sg76
(lp2742
g69
(g90
g71
NtRp2743
(dp2744
g74
(dp2745
g94
g95
ssg83
g2739
sg76
(lp2746
S'url'
p2747
asbag69
(g90
g71
NtRp2748
(dp2749
g74
(dp2750
g101
g102
ssg83
g2739
sg76
(lp2751
S':'
asbag69
(g90
g71
NtRp2752
(dp2753
g74
(dp2754
sg83
g2739
sg76
(lp2755
g69
(g70
g71
NtRp2756
(dp2757
g74
(dp2758
g82
I5
ssg83
g2752
sg76
(lp2759
g1629
asbasbasbag69
(g85
g71
NtRp2760
(dp2761
g74
(dp2762
sg83
g79
sg76
(lp2763
g69
(g90
g71
NtRp2764
(dp2765
g74
(dp2766
g94
g95
ssg83
g2760
sg76
(lp2767
S'utcnow'
p2768
asbag69
(g90
g71
NtRp2769
(dp2770
g74
(dp2771
g101
g102
ssg83
g2760
sg76
(lp2772
S':'
asbag69
(g90
g71
NtRp2773
(dp2774
g74
(dp2775
sg83
g2760
sg76
(lp2776
g69
(g70
g71
NtRp2777
(dp2778
g74
(dp2779
g82
I5
ssg83
g2773
sg76
(lp2780
S'datetime.datetime(2012, 11, 7, 21, 15, 56, 45798)'
p2781
asbasbasbag69
(g85
g71
NtRp2782
(dp2783
g74
(dp2784
sg83
g79
sg76
(lp2785
g69
(g90
g71
NtRp2786
(dp2787
g74
(dp2788
g94
g95
ssg83
g2782
sg76
(lp2789
S'uuid'
p2790
asbag69
(g90
g71
NtRp2791
(dp2792
g74
(dp2793
g101
g102
ssg83
g2782
sg76
(lp2794
S':'
asbag69
(g90
g71
NtRp2795
(dp2796
g74
(dp2797
sg83
g2782
sg76
(lp2798
g69
(g70
g71
NtRp2799
(dp2800
g74
(dp2801
g82
I5
ssg83
g2795
sg76
(lp2802
S'asvpwapp/127.0.0.1.2012-11-07.22-15-56.f61a1f9e-22e9-421a-8647-9bd87b6caac7'
p2803
asbasbasbag69
(g85
g71
NtRp2804
(dp2805
g74
(dp2806
sg83
g79
sg76
(lp2807
g69
(g90
g71
NtRp2808
(dp2809
g74
(dp2810
g94
g95
ssg83
g2804
sg76
(lp2811
S'vars'
p2812
asbag69
(g90
g71
NtRp2813
(dp2814
g74
(dp2815
g101
g102
ssg83
g2804
sg76
(lp2816
S':'
asbag69
(g90
g71
NtRp2817
(dp2818
g74
(dp2819
sg83
g2804
sg76
(lp2820
g69
(g70
g71
NtRp2821
(dp2822
g74
(dp2823
g82
I5
ssg83
g2817
sg76
(lp2824
g69
(g78
g71
NtRp2825
(dp2826
g74
(dp2827
g82
I4
ssg83
Nsg76
(lp2828
sbasbasbasbag69
(g85
g71
NtRp2829
(dp2830
g74
(dp2831
sg83
g79
sg76
(lp2832
g69
(g90
g71
NtRp2833
(dp2834
g74
(dp2835
g94
g95
ssg83
g2829
sg76
(lp2836
S'wsgi'
p2837
asbag69
(g90
g71
NtRp2838
(dp2839
g74
(dp2840
g101
g102
ssg83
g2829
sg76
(lp2841
S':'
asbag69
(g90
g71
NtRp2842
(dp2843
g74
(dp2844
sg83
g2829
sg76
(lp2845
g69
(g70
g71
NtRp2846
(dp2847
g74
(dp2848
g82
I5
ssg83
g2842
sg76
(lp2849
g69
(g78
g71
NtRp2850
(dp2851
g74
(dp2852
g82
I4
ssg83
Nsg76
(lp2853
g69
(g85
g71
NtRp2854
(dp2855
g74
(dp2856
sg83
g2850
sg76
(lp2857
g69
(g90
g71
NtRp2858
(dp2859
g74
(dp2860
g94
g95
ssg83
g2854
sg76
(lp2861
S'environ'
p2862
asbag69
(g90
g71
NtRp2863
(dp2864
g74
(dp2865
g101
g102
ssg83
g2854
sg76
(lp2866
S':'
asbag69
(g90
g71
NtRp2867
(dp2868
g74
(dp2869
sg83
g2854
sg76
(lp2870
g69
(g70
g71
NtRp2871
(dp2872
g74
(dp2873
g82
I4
ssg83
g2867
sg76
(lp2874
g69
(g78
g71
NtRp2875
(dp2876
g74
(dp2877
g82
I3
ssg83
Nsg76
(lp2878
g69
(g85
g71
NtRp2879
(dp2880
g74
(dp2881
sg83
g2875
sg76
(lp2882
g69
(g90
g71
NtRp2883
(dp2884
g74
(dp2885
g94
g95
ssg83
g2879
sg76
(lp2886
S'HTTP_ACCEPT'
p2887
asbag69
(g90
g71
NtRp2888
(dp2889
g74
(dp2890
g101
g102
ssg83
g2879
sg76
(lp2891
S':'
asbag69
(g90
g71
NtRp2892
(dp2893
g74
(dp2894
sg83
g2879
sg76
(lp2895
g69
(g70
g71
NtRp2896
(dp2897
g74
(dp2898
g82
I3
ssg83
g2892
sg76
(lp2899
g1412
asbasbasbag69
(g85
g71
NtRp2900
(dp2901
g74
(dp2902
sg83
g2875
sg76
(lp2903
g69
(g90
g71
NtRp2904
(dp2905
g74
(dp2906
g94
g95
ssg83
g2900
sg76
(lp2907
S'HTTP_ACCEPT_ENCODING'
p2908
asbag69
(g90
g71
NtRp2909
(dp2910
g74
(dp2911
g101
g102
ssg83
g2900
sg76
(lp2912
S':'
asbag69
(g90
g71
NtRp2913
(dp2914
g74
(dp2915
sg83
g2900
sg76
(lp2916
g69
(g70
g71
NtRp2917
(dp2918
g74
(dp2919
g82
I3
ssg83
g2913
sg76
(lp2920
g1434
asbasbasbag69
(g85
g71
NtRp2921
(dp2922
g74
(dp2923
sg83
g2875
sg76
(lp2924
g69
(g90
g71
NtRp2925
(dp2926
g74
(dp2927
g94
g95
ssg83
g2921
sg76
(lp2928
S'HTTP_ACCEPT_LANGUAGE'
p2929
asbag69
(g90
g71
NtRp2930
(dp2931
g74
(dp2932
g101
g102
ssg83
g2921
sg76
(lp2933
S':'
asbag69
(g90
g71
NtRp2934
(dp2935
g74
(dp2936
sg83
g2921
sg76
(lp2937
g69
(g70
g71
NtRp2938
(dp2939
g74
(dp2940
g82
I3
ssg83
g2934
sg76
(lp2941
g1456
asbasbasbag69
(g85
g71
NtRp2942
(dp2943
g74
(dp2944
sg83
g2875
sg76
(lp2945
g69
(g90
g71
NtRp2946
(dp2947
g74
(dp2948
g94
g95
ssg83
g2942
sg76
(lp2949
S'HTTP_CONNECTION'
p2950
asbag69
(g90
g71
NtRp2951
(dp2952
g74
(dp2953
g101
g102
ssg83
g2942
sg76
(lp2954
S':'
asbag69
(g90
g71
NtRp2955
(dp2956
g74
(dp2957
sg83
g2942
sg76
(lp2958
g69
(g70
g71
NtRp2959
(dp2960
g74
(dp2961
g82
I3
ssg83
g2955
sg76
(lp2962
g1478
asbasbasbag69
(g85
g71
NtRp2963
(dp2964
g74
(dp2965
sg83
g2875
sg76
(lp2966
g69
(g90
g71
NtRp2967
(dp2968
g74
(dp2969
g94
g95
ssg83
g2963
sg76
(lp2970
S'HTTP_COOKIE'
p2971
asbag69
(g90
g71
NtRp2972
(dp2973
g74
(dp2974
g101
g102
ssg83
g2963
sg76
(lp2975
S':'
asbag69
(g90
g71
NtRp2976
(dp2977
g74
(dp2978
sg83
g2963
sg76
(lp2979
g69
(g70
g71
NtRp2980
(dp2981
g74
(dp2982
g82
I3
ssg83
g2976
sg76
(lp2983
g1500
asbasbasbag69
(g85
g71
NtRp2984
(dp2985
g74
(dp2986
sg83
g2875
sg76
(lp2987
g69
(g90
g71
NtRp2988
(dp2989
g74
(dp2990
g94
g95
ssg83
g2984
sg76
(lp2991
S'HTTP_DNT'
p2992
asbag69
(g90
g71
NtRp2993
(dp2994
g74
(dp2995
g101
g102
ssg83
g2984
sg76
(lp2996
S':'
asbag69
(g90
g71
NtRp2997
(dp2998
g74
(dp2999
sg83
g2984
sg76
(lp3000
g69
(g70
g71
NtRp3001
(dp3002
g74
(dp3003
g82
I3
ssg83
g2997
sg76
(lp3004
S'1'
asbasbasbag69
(g85
g71
NtRp3005
(dp3006
g74
(dp3007
sg83
g2875
sg76
(lp3008
g69
(g90
g71
NtRp3009
(dp3010
g74
(dp3011
g94
g95
ssg83
g3005
sg76
(lp3012
S'HTTP_HOST'
p3013
asbag69
(g90
g71
NtRp3014
(dp3015
g74
(dp3016
g101
g102
ssg83
g3005
sg76
(lp3017
S':'
asbag69
(g90
g71
NtRp3018
(dp3019
g74
(dp3020
sg83
g3005
sg76
(lp3021
g69
(g70
g71
NtRp3022
(dp3023
g74
(dp3024
g82
I3
ssg83
g3018
sg76
(lp3025
g1543
asbasbasbag69
(g85
g71
NtRp3026
(dp3027
g74
(dp3028
sg83
g2875
sg76
(lp3029
g69
(g90
g71
NtRp3030
(dp3031
g74
(dp3032
g94
g95
ssg83
g3026
sg76
(lp3033
S'HTTP_USER_AGENT'
p3034
asbag69
(g90
g71
NtRp3035
(dp3036
g74
(dp3037
g101
g102
ssg83
g3026
sg76
(lp3038
S':'
asbag69
(g90
g71
NtRp3039
(dp3040
g74
(dp3041
sg83
g3026
sg76
(lp3042
g69
(g70
g71
NtRp3043
(dp3044
g74
(dp3045
g82
I3
ssg83
g3039
sg76
(lp3046
g1565
asbasbasbag69
(g85
g71
NtRp3047
(dp3048
g74
(dp3049
sg83
g2875
sg76
(lp3050
g69
(g90
g71
NtRp3051
(dp3052
g74
(dp3053
g94
g95
ssg83
g3047
sg76
(lp3054
S'PATH_INFO'
p3055
asbag69
(g90
g71
NtRp3056
(dp3057
g74
(dp3058
g101
g102
ssg83
g3047
sg76
(lp3059
S':'
asbag69
(g90
g71
NtRp3060
(dp3061
g74
(dp3062
sg83
g3047
sg76
(lp3063
g69
(g70
g71
NtRp3064
(dp3065
g74
(dp3066
g82
I3
ssg83
g3060
sg76
(lp3067
g1629
asbasbasbag69
(g85
g71
NtRp3068
(dp3069
g74
(dp3070
sg83
g2875
sg76
(lp3071
g69
(g90
g71
NtRp3072
(dp3073
g74
(dp3074
g94
g95
ssg83
g3068
sg76
(lp3075
S'QUERY_STRING'
p3076
asbag69
(g90
g71
NtRp3077
(dp3078
g74
(dp3079
g101
g102
ssg83
g3068
sg76
(lp3080
S':'
asbag69
(g90
g71
NtRp3081
(dp3082
g74
(dp3083
sg83
g3068
sg76
(lp3084
g69
(g70
g71
NtRp3085
(dp3086
g74
(dp3087
g82
I3
ssg83
g3081
sg76
(lp3088
S''
asbasbasbag69
(g85
g71
NtRp3089
(dp3090
g74
(dp3091
sg83
g2875
sg76
(lp3092
g69
(g90
g71
NtRp3093
(dp3094
g74
(dp3095
g94
g95
ssg83
g3089
sg76
(lp3096
S'REMOTE_ADDR'
p3097
asbag69
(g90
g71
NtRp3098
(dp3099
g74
(dp3100
g101
g102
ssg83
g3089
sg76
(lp3101
S':'
asbag69
(g90
g71
NtRp3102
(dp3103
g74
(dp3104
sg83
g3089
sg76
(lp3105
g69
(g70
g71
NtRp3106
(dp3107
g74
(dp3108
g82
I3
ssg83
g3102
sg76
(lp3109
g224
asbasbasbag69
(g85
g71
NtRp3110
(dp3111
g74
(dp3112
sg83
g2875
sg76
(lp3113
g69
(g90
g71
NtRp3114
(dp3115
g74
(dp3116
g94
g95
ssg83
g3110
sg76
(lp3117
S'REMOTE_PORT'
p3118
asbag69
(g90
g71
NtRp3119
(dp3120
g74
(dp3121
g101
g102
ssg83
g3110
sg76
(lp3122
S':'
asbag69
(g90
g71
NtRp3123
(dp3124
g74
(dp3125
sg83
g3110
sg76
(lp3126
g69
(g70
g71
NtRp3127
(dp3128
g74
(dp3129
g82
I3
ssg83
g3123
sg76
(lp3130
g1693
asbasbasbag69
(g85
g71
NtRp3131
(dp3132
g74
(dp3133
sg83
g2875
sg76
(lp3134
g69
(g90
g71
NtRp3135
(dp3136
g74
(dp3137
g94
g95
ssg83
g3131
sg76
(lp3138
S'REQUEST_METHOD'
p3139
asbag69
(g90
g71
NtRp3140
(dp3141
g74
(dp3142
g101
g102
ssg83
g3131
sg76
(lp3143
S':'
asbag69
(g90
g71
NtRp3144
(dp3145
g74
(dp3146
sg83
g3131
sg76
(lp3147
g69
(g70
g71
NtRp3148
(dp3149
g74
(dp3150
g82
I3
ssg83
g3144
sg76
(lp3151
g1715
asbasbasbag69
(g85
g71
NtRp3152
(dp3153
g74
(dp3154
sg83
g2875
sg76
(lp3155
g69
(g90
g71
NtRp3156
(dp3157
g74
(dp3158
g94
g95
ssg83
g3152
sg76
(lp3159
S'REQUEST_URI'
p3160
asbag69
(g90
g71
NtRp3161
(dp3162
g74
(dp3163
g101
g102
ssg83
g3152
sg76
(lp3164
S':'
asbag69
(g90
g71
NtRp3165
(dp3166
g74
(dp3167
sg83
g3152
sg76
(lp3168
g69
(g70
g71
NtRp3169
(dp3170
g74
(dp3171
g82
I3
ssg83
g3165
sg76
(lp3172
g1629
asbasbasbag69
(g85
g71
NtRp3173
(dp3174
g74
(dp3175
sg83
g2875
sg76
(lp3176
g69
(g90
g71
NtRp3177
(dp3178
g74
(dp3179
g94
g95
ssg83
g3173
sg76
(lp3180
S'SCRIPT_NAME'
p3181
asbag69
(g90
g71
NtRp3182
(dp3183
g74
(dp3184
g101
g102
ssg83
g3173
sg76
(lp3185
S':'
asbag69
(g90
g71
NtRp3186
(dp3187
g74
(dp3188
sg83
g3173
sg76
(lp3189
g69
(g70
g71
NtRp3190
(dp3191
g74
(dp3192
g82
I3
ssg83
g3186
sg76
(lp3193
S''
asbasbasbag69
(g85
g71
NtRp3194
(dp3195
g74
(dp3196
sg83
g2875
sg76
(lp3197
g69
(g90
g71
NtRp3198
(dp3199
g74
(dp3200
g94
g95
ssg83
g3194
sg76
(lp3201
S'SERVER_NAME'
p3202
asbag69
(g90
g71
NtRp3203
(dp3204
g74
(dp3205
g101
g102
ssg83
g3194
sg76
(lp3206
S':'
asbag69
(g90
g71
NtRp3207
(dp3208
g74
(dp3209
sg83
g3194
sg76
(lp3210
g69
(g70
g71
NtRp3211
(dp3212
g74
(dp3213
g82
I3
ssg83
g3207
sg76
(lp3214
g1779
asbasbasbag69
(g85
g71
NtRp3215
(dp3216
g74
(dp3217
sg83
g2875
sg76
(lp3218
g69
(g90
g71
NtRp3219
(dp3220
g74
(dp3221
g94
g95
ssg83
g3215
sg76
(lp3222
S'SERVER_PORT'
p3223
asbag69
(g90
g71
NtRp3224
(dp3225
g74
(dp3226
g101
g102
ssg83
g3215
sg76
(lp3227
S':'
asbag69
(g90
g71
NtRp3228
(dp3229
g74
(dp3230
sg83
g3215
sg76
(lp3231
g69
(g70
g71
NtRp3232
(dp3233
g74
(dp3234
g82
I3
ssg83
g3228
sg76
(lp3235
g1801
asbasbasbag69
(g85
g71
NtRp3236
(dp3237
g74
(dp3238
sg83
g2875
sg76
(lp3239
g69
(g90
g71
NtRp3240
(dp3241
g74
(dp3242
g94
g95
ssg83
g3236
sg76
(lp3243
S'SERVER_PROTOCOL'
p3244
asbag69
(g90
g71
NtRp3245
(dp3246
g74
(dp3247
g101
g102
ssg83
g3236
sg76
(lp3248
S':'
asbag69
(g90
g71
NtRp3249
(dp3250
g74
(dp3251
sg83
g3236
sg76
(lp3252
g69
(g70
g71
NtRp3253
(dp3254
g74
(dp3255
g82
I3
ssg83
g3249
sg76
(lp3256
g1823
asbasbasbag69
(g85
g71
NtRp3257
(dp3258
g74
(dp3259
sg83
g2875
sg76
(lp3260
g69
(g90
g71
NtRp3261
(dp3262
g74
(dp3263
g94
g95
ssg83
g3257
sg76
(lp3264
S'SERVER_SOFTWARE'
p3265
asbag69
(g90
g71
NtRp3266
(dp3267
g74
(dp3268
g101
g102
ssg83
g3257
sg76
(lp3269
S':'
asbag69
(g90
g71
NtRp3270
(dp3271
g74
(dp3272
sg83
g3257
sg76
(lp3273
g69
(g70
g71
NtRp3274
(dp3275
g74
(dp3276
g82
I3
ssg83
g3270
sg76
(lp3277
g1845
asbasbasbag69
(g85
g71
NtRp3278
(dp3279
g74
(dp3280
sg83
g2875
sg76
(lp3281
g69
(g90
g71
NtRp3282
(dp3283
g74
(dp3284
g94
g95
ssg83
g3278
sg76
(lp3285
S'wsgi.errors'
p3286
asbag69
(g90
g71
NtRp3287
(dp3288
g74
(dp3289
g101
g102
ssg83
g3278
sg76
(lp3290
S':'
asbag69
(g90
g71
NtRp3291
(dp3292
g74
(dp3293
sg83
g3278
sg76
(lp3294
g69
(g70
g71
NtRp3295
(dp3296
g74
(dp3297
g82
I3
ssg83
g3291
sg76
(lp3298
S"<open file '<stderr>', mode 'w' at 0x7fdca635c270>"
p3299
asbasbasbag69
(g85
g71
NtRp3300
(dp3301
g74
(dp3302
sg83
g2875
sg76
(lp3303
g69
(g90
g71
NtRp3304
(dp3305
g74
(dp3306
g94
g95
ssg83
g3300
sg76
(lp3307
S'wsgi.file_wrapper'
p3308
asbag69
(g90
g71
NtRp3309
(dp3310
g74
(dp3311
g101
g102
ssg83
g3300
sg76
(lp3312
S':'
asbag69
(g90
g71
NtRp3313
(dp3314
g74
(dp3315
sg83
g3300
sg76
(lp3316
g69
(g70
g71
NtRp3317
(dp3318
g74
(dp3319
g82
I3
ssg83
g3313
sg76
(lp3320
S'<class wsgiref.util.FileWrapper at 0x1de2c18>'
p3321
asbasbasbag69
(g85
g71
NtRp3322
(dp3323
g74
(dp3324
sg83
g2875
sg76
(lp3325
g69
(g90
g71
NtRp3326
(dp3327
g74
(dp3328
g94
g95
ssg83
g3322
sg76
(lp3329
S'wsgi.input'
p3330
asbag69
(g90
g71
NtRp3331
(dp3332
g74
(dp3333
g101
g102
ssg83
g3322
sg76
(lp3334
S':'
asbag69
(g90
g71
NtRp3335
(dp3336
g74
(dp3337
sg83
g3322
sg76
(lp3338
g69
(g70
g71
NtRp3339
(dp3340
g74
(dp3341
g82
I3
ssg83
g3335
sg76
(lp3342
S'<cStringIO.StringO object at 0x1ca1960>'
p3343
asbasbasbag69
(g85
g71
NtRp3344
(dp3345
g74
(dp3346
sg83
g2875
sg76
(lp3347
g69
(g90
g71
NtRp3348
(dp3349
g74
(dp3350
g94
g95
ssg83
g3344
sg76
(lp3351
S'wsgi.multiprocess'
p3352
asbag69
(g90
g71
NtRp3353
(dp3354
g74
(dp3355
g101
g102
ssg83
g3344
sg76
(lp3356
S':'
asbag69
(g90
g71
NtRp3357
(dp3358
g74
(dp3359
sg83
g3344
sg76
(lp3360
g69
(g70
g71
NtRp3361
(dp3362
g74
(dp3363
g82
I3
ssg83
g3357
sg76
(lp3364
g112
asbasbasbag69
(g85
g71
NtRp3365
(dp3366
g74
(dp3367
sg83
g2875
sg76
(lp3368
g69
(g90
g71
NtRp3369
(dp3370
g74
(dp3371
g94
g95
ssg83
g3365
sg76
(lp3372
S'wsgi.multithread'
p3373
asbag69
(g90
g71
NtRp3374
(dp3375
g74
(dp3376
g101
g102
ssg83
g3365
sg76
(lp3377
S':'
asbag69
(g90
g71
NtRp3378
(dp3379
g74
(dp3380
sg83
g3365
sg76
(lp3381
g69
(g70
g71
NtRp3382
(dp3383
g74
(dp3384
g82
I3
ssg83
g3378
sg76
(lp3385
g2084
asbasbasbag69
(g85
g71
NtRp3386
(dp3387
g74
(dp3388
sg83
g2875
sg76
(lp3389
g69
(g90
g71
NtRp3390
(dp3391
g74
(dp3392
g94
g95
ssg83
g3386
sg76
(lp3393
S'wsgi.run_once'
p3394
asbag69
(g90
g71
NtRp3395
(dp3396
g74
(dp3397
g101
g102
ssg83
g3386
sg76
(lp3398
S':'
asbag69
(g90
g71
NtRp3399
(dp3400
g74
(dp3401
sg83
g3386
sg76
(lp3402
g69
(g70
g71
NtRp3403
(dp3404
g74
(dp3405
g82
I3
ssg83
g3399
sg76
(lp3406
g112
asbasbasbag69
(g85
g71
NtRp3407
(dp3408
g74
(dp3409
sg83
g2875
sg76
(lp3410
g69
(g90
g71
NtRp3411
(dp3412
g74
(dp3413
g94
g95
ssg83
g3407
sg76
(lp3414
S'wsgi.url_scheme'
p3415
asbag69
(g90
g71
NtRp3416
(dp3417
g74
(dp3418
g101
g102
ssg83
g3407
sg76
(lp3419
S':'
asbag69
(g90
g71
NtRp3420
(dp3421
g74
(dp3422
sg83
g3407
sg76
(lp3423
g69
(g70
g71
NtRp3424
(dp3425
g74
(dp3426
g82
I3
ssg83
g3420
sg76
(lp3427
g2127
asbasbasbag69
(g85
g71
NtRp3428
(dp3429
g74
(dp3430
sg83
g2875
sg76
(lp3431
g69
(g90
g71
NtRp3432
(dp3433
g74
(dp3434
g94
g95
ssg83
g3428
sg76
(lp3435
S'wsgi.version'
p3436
asbag69
(g90
g71
NtRp3437
(dp3438
g74
(dp3439
g101
g102
ssg83
g3428
sg76
(lp3440
S':'
asbag69
(g90
g71
NtRp3441
(dp3442
g74
(dp3443
sg83
g3428
sg76
(lp3444
g69
(g70
g71
NtRp3445
(dp3446
g74
(dp3447
g82
I3
ssg83
g3441
sg76
(lp3448
S'1'
asbasbasbasbasbasbasbasbasbasbasbasbasbsS'frames'
p3449
(lp3450
(dp3451
S'file'
p3452
S'/media/work/home/dev/python/asvpwapp/web2py/gluon/restricted.py'
p3453
sS'dump'
p3454
(dp3455
S'environment'
p3456
S"{'A': <class 'gluon.html.A'>, 'Auth': <class 'gluon.tools.Auth'>, 'B': <class 'gluon.html.B'>, 'BEAUTIFY': <class 'gluon.html.BEAUTIFY'>, 'BODY': <class 'gluon.html.BODY'>, 'BR': <class 'gluon.html.BR'>, 'BUTTON': <class 'gluon.html.BUTTON'>, 'CAT': <class 'gluon.html.CAT'>, 'CENTER': <class 'gluon.html.CENTER'>, 'CLEANUP': <class 'gluon.validators.CLEANUP'>, ...}"
p3457
sS'ccode'
p3458
S'<code object <module> at 0x7fdc7c0fc0b0, file "/...2py/applications/asvpwapp/models/db.py", line 12>'
p3459
ssS'lnum'
p3460
I209
sS'lines'
p3461
(dp3462
I204
S'    try:'
p3463
sI205
S'        if type(code) == types.CodeType:'
p3464
sI206
S'            ccode = code'
p3465
sI207
S'        else:'
p3466
sI208
S'            ccode = compile2(code,layer)'
p3467
sI209
S'        exec ccode in environment'
p3468
sI210
S'    except HTTP:'
p3469
sI211
S'        raise'
p3470
sI212
S'    except RestrictedError:'
p3471
sI213
S'        # do not encapsulate (obfuscate) the original RestrictedError'
p3472
ssS'call'
p3473
S"(code='# -*- coding: utf-8 -*-\\n\\n#######################...ble auditing\\n# auth.enable_record_versioning(db)\\n', environment={'A': <class 'gluon.html.A'>, 'Auth': <class 'gluon.tools.Auth'>, 'B': <class 'gluon.html.B'>, 'BEAUTIFY': <class 'gluon.html.BEAUTIFY'>, 'BODY': <class 'gluon.html.BODY'>, 'BR': <class 'gluon.html.BR'>, 'BUTTON': <class 'gluon.html.BUTTON'>, 'CAT': <class 'gluon.html.CAT'>, 'CENTER': <class 'gluon.html.CENTER'>, 'CLEANUP': <class 'gluon.validators.CLEANUP'>, ...}, layer='/media/work/home/dev/python/asvpwapp/web2py/applications/asvpwapp/models/db.py')"
p3474
sS'func'
p3475
S'restricted'
p3476
sa(dp3477
g3452
S'/media/work/home/dev/python/asvpwapp/web2py/applications/asvpwapp/models/db.py'
p3478
sg3454
(dp3479
S'Field'
p3480
S"<class 'gluon.dal.Field'>"
p3481
ssg3460
I87
sg3461
(dp3482
I82
S"db.define_table('shooters',Field('first_name','string'),"
p3483
sI83
S"                           Field('last_name','string'))"
p3484
sI84
S"db.define_table('weapon_types',Field('name','string'),"
p3485
sI85
S"                               Field('default_target_size','int'),"
p3486
sI86
S"                               Field('picture','blob'),"
p3487
sI87
S"                               Field('default_round_size','int'))"
p3488
sI88
S"db.define_table('shooters_weapons',Field('shooter_id','int'),"
p3489
sI89
S"                                   Field('weapon_type_id','int'))"
p3490
sI90
S"db.define_table('series',Field('shooter_id','int'),"
p3491
sI91
S"                         Field('timestamp','datetime'),"
p3492
ssg3473
S'()'
p3493
sg3475
S'<module>'
p3494
sa(dp3495
g3452
S'/media/work/home/dev/python/asvpwapp/web2py/gluon/dal.py'
p3496
sg3454
(dp3497
S'fields'
p3498
S'(<gluon.dal.Field object>, <gluon.dal.Field object>, <gluon.dal.Field object>, <gluon.dal.Field object>)'
p3499
sS'self'
p3500
S'<DAL sqlite://storage.sqlite>'
p3501
sS'args'
p3502
g21
sS'tablename'
p3503
S"'weapon_types'"
p3504
sS'table'
p3505
S'undefined'
p3506
sS'self.lazy_define_table'
p3507
S'<bound method DAL.lazy_define_table of <DAL sqlite://storage.sqlite>>'
p3508
ssg3460
I7095
sg3461
(dp3509
I7090
S'                    % (tablename,invalid_args)'
p3510
sI7091
S'        if self._lazy_tables and not tablename in self._LAZY_TABLES:'
p3511
sI7092
S'            self._LAZY_TABLES[tablename] = (tablename,fields,args)'
p3512
sI7093
S'            table = None'
p3513
sI7094
S'        else:'
p3514
sI7095
S'            table = self.lazy_define_table(tablename,*fields,**args)'
p3515
sI7096
S'        self.tables.append(tablename)'
p3516
sI7097
S'        return table'
p3517
sI7098
S''
sI7099
S'    def lazy_define_table('
p3518
ssg3473
S"(self=<DAL sqlite://storage.sqlite>, tablename='weapon_types', *fields=(<gluon.dal.Field object>, <gluon.dal.Field object>, <gluon.dal.Field object>, <gluon.dal.Field object>), **args={})"
p3519
sg3475
S'define_table'
p3520
sa(dp3521
g3452
S'/media/work/home/dev/python/asvpwapp/web2py/gluon/dal.py'
p3522
sg3454
(dp3523
S'polymodel'
p3524
S'None'
p3525
ssg3460
I7126
sg3461
(dp3526
I7121
S"            polymodel = args_get('polymodel',None)"
p3527
sI7122
S'            try:'
p3528
sI7123
S'                sql_locker.acquire()'
p3529
sI7124
S'                self._adapter.create_table(table,migrate=migrate,'
p3530
sI7125
S'                                           fake_migrate=fake_migrate,'
p3531
sI7126
S'                                           polymodel=polymodel)'
p3532
sI7127
S'            finally:'
p3533
sI7128
S'                sql_locker.release()'
p3534
sI7129
S'        else:'
p3535
sI7130
S'            table._dbt = None'
p3536
ssg3473
S"(self=<DAL sqlite://storage.sqlite>, tablename='weapon_types', *fields=(<gluon.dal.Field object>, <gluon.dal.Field object>, <gluon.dal.Field object>, <gluon.dal.Field object>), **args={})"
p3537
sg3475
S'lazy_define_table'
p3538
sa(dp3539
g3452
S'/media/work/home/dev/python/asvpwapp/web2py/gluon/dal.py'
p3540
sg3454
(dp3541
S'field_type'
p3542
S"'int'"
p3543
sS'field_name'
p3544
S"'default_target_size'"
p3545
ssg3460
I809
sg3461
(dp3546
I804
S'                                         fieldname=field_name, srid=srid,'
p3547
sI805
S'                                         dimension=dimension)'
p3548
sI806
S'                    postcreation_fields.append(ftype)'
p3549
sI807
S'            elif not field_type in types:'
p3550
sI808
S"                raise SyntaxError, 'Field: unknown field type: %s for %s' % \\"
p3551
sI809
S'                    (field_type, field_name)'
p3552
sI810
S'            else:'
p3553
sI811
S'                ftype = types[field_type]\\'
p3554
sI812
S'                     % dict(length=field.length)'
p3555
sI813
S"            if not field_type.startswith('id') and \\"
p3556
ssg3473
S'(self=<gluon.dal.SQLiteAdapter object>, table=<Table weapon_types (id,name,default_target_size,picture,default_round_size)>, migrate=True, fake_migrate=False, polymodel=None)'
p3557
sg3475
S'create_table'
p3558
sasS'pyver'
p3559
S'Python 2.7.3: /usr/bin/python2'
p3560
sS'session'
p3561
g69
(g70
g71
NtRp3562
(dp3563
g74
(dp3564
sg76
(lp3565
g69
(g78
g71
NtRp3566
(dp3567
g74
(dp3568
g82
I5
ssg83
Nsg76
(lp3569
g69
(g85
g71
NtRp3570
(dp3571
g74
(dp3572
sg83
g3566
sg76
(lp3573
g69
(g90
g71
NtRp3574
(dp3575
g74
(dp3576
g94
g95
ssg83
g3570
sg76
(lp3577
S'auth'
p3578
asbag69
(g90
g71
NtRp3579
(dp3580
g74
(dp3581
g101
g102
ssg83
g3570
sg76
(lp3582
S':'
asbag69
(g90
g71
NtRp3583
(dp3584
g74
(dp3585
sg83
g3570
sg76
(lp3586
g69
(g70
g71
NtRp3587
(dp3588
g74
(dp3589
g82
I5
ssg83
g3583
sg76
(lp3590
S'None'
p3591
asbasbasbasbasbsS'etype'
p3592
S"<type 'exceptions.SyntaxError'>"
p3593
sS'date'
p3594
S'Wed Nov  7 22:15:56 2012'
p3595
sS'response'
p3596
g69
(g70
g71
NtRp3597
(dp3598
g74
(dp3599
sg76
(lp3600
g69
(g78
g71
NtRp3601
(dp3602
g74
(dp3603
g82
I5
ssg83
Nsg76
(lp3604
g69
(g85
g71
NtRp3605
(dp3606
g74
(dp3607
sg83
g3601
sg76
(lp3608
g69
(g90
g71
NtRp3609
(dp3610
g74
(dp3611
g94
g95
ssg83
g3605
sg76
(lp3612
g167
asbag69
(g90
g71
NtRp3613
(dp3614
g74
(dp3615
g101
g102
ssg83
g3605
sg76
(lp3616
S':'
asbag69
(g90
g71
NtRp3617
(dp3618
g74
(dp3619
sg83
g3605
sg76
(lp3620
g69
(g70
g71
NtRp3621
(dp3622
g74
(dp3623
g82
I5
ssg83
g3617
sg76
(lp3624
S'<cStringIO.StringO object at 0x1ca18b8>'
p3625
asbasbasbag69
(g85
g71
NtRp3626
(dp3627
g74
(dp3628
sg83
g3601
sg76
(lp3629
g69
(g90
g71
NtRp3630
(dp3631
g74
(dp3632
g94
g95
ssg83
g3626
sg76
(lp3633
g255
asbag69
(g90
g71
NtRp3634
(dp3635
g74
(dp3636
g101
g102
ssg83
g3626
sg76
(lp3637
S':'
asbag69
(g90
g71
NtRp3638
(dp3639
g74
(dp3640
sg83
g3626
sg76
(lp3641
g69
(g70
g71
NtRp3642
(dp3643
g74
(dp3644
g82
I5
ssg83
g3638
sg76
(lp3645
g69
(g78
g71
NtRp3646
(dp3647
g74
(dp3648
g82
I4
ssg83
Nsg76
(lp3649
g69
(g85
g71
NtRp3650
(dp3651
g74
(dp3652
sg83
g3646
sg76
(lp3653
g69
(g90
g71
NtRp3654
(dp3655
g74
(dp3656
g94
g95
ssg83
g3650
sg76
(lp3657
S'session_id_asvpwapp'
p3658
asbag69
(g90
g71
NtRp3659
(dp3660
g74
(dp3661
g101
g102
ssg83
g3650
sg76
(lp3662
S':'
asbag69
(g90
g71
NtRp3663
(dp3664
g74
(dp3665
sg83
g3650
sg76
(lp3666
g69
(g70
g71
NtRp3667
(dp3668
g74
(dp3669
g82
I4
ssg83
g3663
sg76
(lp3670
g673
ag69
(g78
g71
NtRp3671
(dp3672
g74
(dp3673
g82
I3
ssg83
Nsg76
(lp3674
g69
(g85
g71
NtRp3675
(dp3676
g74
(dp3677
sg83
g3671
sg76
(lp3678
g69
(g90
g71
NtRp3679
(dp3680
g74
(dp3681
g94
g95
ssg83
g3675
sg76
(lp3682
g306
asbag69
(g90
g71
NtRp3683
(dp3684
g74
(dp3685
g101
g102
ssg83
g3675
sg76
(lp3686
S':'
asbag69
(g90
g71
NtRp3687
(dp3688
g74
(dp3689
sg83
g3675
sg76
(lp3690
g69
(g70
g71
NtRp3691
(dp3692
g74
(dp3693
g82
I3
ssg83
g3687
sg76
(lp3694
S''
asbasbasbag69
(g85
g71
NtRp3695
(dp3696
g74
(dp3697
sg83
g3671
sg76
(lp3698
g69
(g90
g71
NtRp3699
(dp3700
g74
(dp3701
g94
g95
ssg83
g3695
sg76
(lp3702
g327
asbag69
(g90
g71
NtRp3703
(dp3704
g74
(dp3705
g101
g102
ssg83
g3695
sg76
(lp3706
S':'
asbag69
(g90
g71
NtRp3707
(dp3708
g74
(dp3709
sg83
g3695
sg76
(lp3710
g69
(g70
g71
NtRp3711
(dp3712
g74
(dp3713
g82
I3
ssg83
g3707
sg76
(lp3714
S''
asbasbasbag69
(g85
g71
NtRp3715
(dp3716
g74
(dp3717
sg83
g3671
sg76
(lp3718
g69
(g90
g71
NtRp3719
(dp3720
g74
(dp3721
g94
g95
ssg83
g3715
sg76
(lp3722
g348
asbag69
(g90
g71
NtRp3723
(dp3724
g74
(dp3725
g101
g102
ssg83
g3715
sg76
(lp3726
S':'
asbag69
(g90
g71
NtRp3727
(dp3728
g74
(dp3729
sg83
g3715
sg76
(lp3730
g69
(g70
g71
NtRp3731
(dp3732
g74
(dp3733
g82
I3
ssg83
g3727
sg76
(lp3734
S''
asbasbasbag69
(g85
g71
NtRp3735
(dp3736
g74
(dp3737
sg83
g3671
sg76
(lp3738
g69
(g90
g71
NtRp3739
(dp3740
g74
(dp3741
g94
g95
ssg83
g3735
sg76
(lp3742
g369
asbag69
(g90
g71
NtRp3743
(dp3744
g74
(dp3745
g101
g102
ssg83
g3735
sg76
(lp3746
S':'
asbag69
(g90
g71
NtRp3747
(dp3748
g74
(dp3749
sg83
g3735
sg76
(lp3750
g69
(g70
g71
NtRp3751
(dp3752
g74
(dp3753
g82
I3
ssg83
g3747
sg76
(lp3754
S''
asbasbasbag69
(g85
g71
NtRp3755
(dp3756
g74
(dp3757
sg83
g3671
sg76
(lp3758
g69
(g90
g71
NtRp3759
(dp3760
g74
(dp3761
g94
g95
ssg83
g3755
sg76
(lp3762
g390
asbag69
(g90
g71
NtRp3763
(dp3764
g74
(dp3765
g101
g102
ssg83
g3755
sg76
(lp3766
S':'
asbag69
(g90
g71
NtRp3767
(dp3768
g74
(dp3769
sg83
g3755
sg76
(lp3770
g69
(g70
g71
NtRp3771
(dp3772
g74
(dp3773
g82
I3
ssg83
g3767
sg76
(lp3774
S''
asbasbasbag69
(g85
g71
NtRp3775
(dp3776
g74
(dp3777
sg83
g3671
sg76
(lp3778
g69
(g90
g71
NtRp3779
(dp3780
g74
(dp3781
g94
g95
ssg83
g3775
sg76
(lp3782
g411
asbag69
(g90
g71
NtRp3783
(dp3784
g74
(dp3785
g101
g102
ssg83
g3775
sg76
(lp3786
S':'
asbag69
(g90
g71
NtRp3787
(dp3788
g74
(dp3789
sg83
g3775
sg76
(lp3790
g69
(g70
g71
NtRp3791
(dp3792
g74
(dp3793
g82
I3
ssg83
g3787
sg76
(lp3794
S'/'
asbasbasbag69
(g85
g71
NtRp3795
(dp3796
g74
(dp3797
sg83
g3671
sg76
(lp3798
g69
(g90
g71
NtRp3799
(dp3800
g74
(dp3801
g94
g95
ssg83
g3795
sg76
(lp3802
g432
asbag69
(g90
g71
NtRp3803
(dp3804
g74
(dp3805
g101
g102
ssg83
g3795
sg76
(lp3806
S':'
asbag69
(g90
g71
NtRp3807
(dp3808
g74
(dp3809
sg83
g3795
sg76
(lp3810
g69
(g70
g71
NtRp3811
(dp3812
g74
(dp3813
g82
I3
ssg83
g3807
sg76
(lp3814
S''
asbasbasbag69
(g85
g71
NtRp3815
(dp3816
g74
(dp3817
sg83
g3671
sg76
(lp3818
g69
(g90
g71
NtRp3819
(dp3820
g74
(dp3821
g94
g95
ssg83
g3815
sg76
(lp3822
g453
asbag69
(g90
g71
NtRp3823
(dp3824
g74
(dp3825
g101
g102
ssg83
g3815
sg76
(lp3826
S':'
asbag69
(g90
g71
NtRp3827
(dp3828
g74
(dp3829
sg83
g3815
sg76
(lp3830
g69
(g70
g71
NtRp3831
(dp3832
g74
(dp3833
g82
I3
ssg83
g3827
sg76
(lp3834
S''
asbasbasbasbasbasbasbasbasbasbasbag69
(g85
g71
NtRp3835
(dp3836
g74
(dp3837
sg83
g3601
sg76
(lp3838
g69
(g90
g71
NtRp3839
(dp3840
g74
(dp3841
g94
g95
ssg83
g3835
sg76
(lp3842
S'delimiters'
p3843
asbag69
(g90
g71
NtRp3844
(dp3845
g74
(dp3846
g101
g102
ssg83
g3835
sg76
(lp3847
S':'
asbag69
(g90
g71
NtRp3848
(dp3849
g74
(dp3850
sg83
g3835
sg76
(lp3851
g69
(g70
g71
NtRp3852
(dp3853
g74
(dp3854
g82
I5
ssg83
g3848
sg76
(lp3855
g69
(g78
g71
NtRp3856
(dp3857
g74
(dp3858
g82
I4
ssg83
Nsg76
(lp3859
g69
(g85
g71
NtRp3860
(dp3861
g74
(dp3862
sg83
g3856
sg76
(lp3863
g69
(g90
g71
NtRp3864
(dp3865
g74
(dp3866
sg83
g3860
sg76
(lp3867
g69
(g70
g71
NtRp3868
(dp3869
g74
(dp3870
g82
I4
ssg83
g3864
sg76
(lp3871
S'{{'
p3872
asbasbasbag69
(g85
g71
NtRp3873
(dp3874
g74
(dp3875
sg83
g3856
sg76
(lp3876
g69
(g90
g71
NtRp3877
(dp3878
g74
(dp3879
sg83
g3873
sg76
(lp3880
g69
(g70
g71
NtRp3881
(dp3882
g74
(dp3883
g82
I4
ssg83
g3877
sg76
(lp3884
S'}}'
p3885
asbasbasbasbasbasbasbag69
(g85
g71
NtRp3886
(dp3887
g74
(dp3888
sg83
g3601
sg76
(lp3889
g69
(g90
g71
NtRp3890
(dp3891
g74
(dp3892
g94
g95
ssg83
g3886
sg76
(lp3893
S'files'
p3894
asbag69
(g90
g71
NtRp3895
(dp3896
g74
(dp3897
g101
g102
ssg83
g3886
sg76
(lp3898
S':'
asbag69
(g90
g71
NtRp3899
(dp3900
g74
(dp3901
sg83
g3886
sg76
(lp3902
g69
(g70
g71
NtRp3903
(dp3904
g74
(dp3905
g82
I5
ssg83
g3899
sg76
(lp3906
g69
(g78
g71
NtRp3907
(dp3908
g74
(dp3909
g82
I4
ssg83
Nsg76
(lp3910
sbasbasbasbag69
(g85
g71
NtRp3911
(dp3912
g74
(dp3913
sg83
g3601
sg76
(lp3914
g69
(g90
g71
NtRp3915
(dp3916
g74
(dp3917
g94
g95
ssg83
g3911
sg76
(lp3918
S'flash'
p3919
asbag69
(g90
g71
NtRp3920
(dp3921
g74
(dp3922
g101
g102
ssg83
g3911
sg76
(lp3923
S':'
asbag69
(g90
g71
NtRp3924
(dp3925
g74
(dp3926
sg83
g3911
sg76
(lp3927
g69
(g70
g71
NtRp3928
(dp3929
g74
(dp3930
g82
I5
ssg83
g3924
sg76
(lp3931
S''
asbasbasbag69
(g85
g71
NtRp3932
(dp3933
g74
(dp3934
sg83
g3601
sg76
(lp3935
g69
(g90
g71
NtRp3936
(dp3937
g74
(dp3938
g94
g95
ssg83
g3932
sg76
(lp3939
S'generic_patterns'
p3940
asbag69
(g90
g71
NtRp3941
(dp3942
g74
(dp3943
g101
g102
ssg83
g3932
sg76
(lp3944
S':'
asbag69
(g90
g71
NtRp3945
(dp3946
g74
(dp3947
sg83
g3932
sg76
(lp3948
g69
(g70
g71
NtRp3949
(dp3950
g74
(dp3951
g82
I5
ssg83
g3945
sg76
(lp3952
g69
(g78
g71
NtRp3953
(dp3954
g74
(dp3955
g82
I4
ssg83
Nsg76
(lp3956
g69
(g85
g71
NtRp3957
(dp3958
g74
(dp3959
sg83
g3953
sg76
(lp3960
g69
(g90
g71
NtRp3961
(dp3962
g74
(dp3963
sg83
g3957
sg76
(lp3964
g69
(g70
g71
NtRp3965
(dp3966
g74
(dp3967
g82
I4
ssg83
g3961
sg76
(lp3968
S'*'
asbasbasbasbasbasbasbag69
(g85
g71
NtRp3969
(dp3970
g74
(dp3971
sg83
g3601
sg76
(lp3972
g69
(g90
g71
NtRp3973
(dp3974
g74
(dp3975
g94
g95
ssg83
g3969
sg76
(lp3976
S'headers'
p3977
asbag69
(g90
g71
NtRp3978
(dp3979
g74
(dp3980
g101
g102
ssg83
g3969
sg76
(lp3981
S':'
asbag69
(g90
g71
NtRp3982
(dp3983
g74
(dp3984
sg83
g3969
sg76
(lp3985
g69
(g70
g71
NtRp3986
(dp3987
g74
(dp3988
g82
I5
ssg83
g3982
sg76
(lp3989
g69
(g78
g71
NtRp3990
(dp3991
g74
(dp3992
g82
I4
ssg83
Nsg76
(lp3993
g69
(g85
g71
NtRp3994
(dp3995
g74
(dp3996
sg83
g3990
sg76
(lp3997
g69
(g90
g71
NtRp3998
(dp3999
g74
(dp4000
g94
g95
ssg83
g3994
sg76
(lp4001
S'X-Powered-By'
p4002
asbag69
(g90
g71
NtRp4003
(dp4004
g74
(dp4005
g101
g102
ssg83
g3994
sg76
(lp4006
S':'
asbag69
(g90
g71
NtRp4007
(dp4008
g74
(dp4009
sg83
g3994
sg76
(lp4010
g69
(g70
g71
NtRp4011
(dp4012
g74
(dp4013
g82
I4
ssg83
g4007
sg76
(lp4014
S'web2py'
p4015
asbasbasbasbasbasbasbag69
(g85
g71
NtRp4016
(dp4017
g74
(dp4018
sg83
g3601
sg76
(lp4019
g69
(g90
g71
NtRp4020
(dp4021
g74
(dp4022
g94
g95
ssg83
g4016
sg76
(lp4023
S'menu'
p4024
asbag69
(g90
g71
NtRp4025
(dp4026
g74
(dp4027
g101
g102
ssg83
g4016
sg76
(lp4028
S':'
asbag69
(g90
g71
NtRp4029
(dp4030
g74
(dp4031
sg83
g4016
sg76
(lp4032
g69
(g70
g71
NtRp4033
(dp4034
g74
(dp4035
g82
I5
ssg83
g4029
sg76
(lp4036
g69
(g78
g71
NtRp4037
(dp4038
g74
(dp4039
g82
I4
ssg83
Nsg76
(lp4040
sbasbasbasbag69
(g85
g71
NtRp4041
(dp4042
g74
(dp4043
sg83
g3601
sg76
(lp4044
g69
(g90
g71
NtRp4045
(dp4046
g74
(dp4047
g94
g95
ssg83
g4041
sg76
(lp4048
S'meta'
p4049
asbag69
(g90
g71
NtRp4050
(dp4051
g74
(dp4052
g101
g102
ssg83
g4041
sg76
(lp4053
S':'
asbag69
(g90
g71
NtRp4054
(dp4055
g74
(dp4056
sg83
g4041
sg76
(lp4057
g69
(g70
g71
NtRp4058
(dp4059
g74
(dp4060
g82
I5
ssg83
g4054
sg76
(lp4061
g69
(g78
g71
NtRp4062
(dp4063
g74
(dp4064
g82
I4
ssg83
Nsg76
(lp4065
sbasbasbasbag69
(g85
g71
NtRp4066
(dp4067
g74
(dp4068
sg83
g3601
sg76
(lp4069
g69
(g90
g71
NtRp4070
(dp4071
g74
(dp4072
g94
g95
ssg83
g4066
sg76
(lp4073
S'models_to_run'
p4074
asbag69
(g90
g71
NtRp4075
(dp4076
g74
(dp4077
g101
g102
ssg83
g4066
sg76
(lp4078
S':'
asbag69
(g90
g71
NtRp4079
(dp4080
g74
(dp4081
sg83
g4066
sg76
(lp4082
g69
(g70
g71
NtRp4083
(dp4084
g74
(dp4085
g82
I5
ssg83
g4079
sg76
(lp4086
g69
(g78
g71
NtRp4087
(dp4088
g74
(dp4089
g82
I4
ssg83
Nsg76
(lp4090
g69
(g85
g71
NtRp4091
(dp4092
g74
(dp4093
sg83
g4087
sg76
(lp4094
g69
(g90
g71
NtRp4095
(dp4096
g74
(dp4097
sg83
g4091
sg76
(lp4098
g69
(g70
g71
NtRp4099
(dp4100
g74
(dp4101
g82
I4
ssg83
g4095
sg76
(lp4102
S'^\\w+\\.py$'
p4103
asbasbasbag69
(g85
g71
NtRp4104
(dp4105
g74
(dp4106
sg83
g4087
sg76
(lp4107
g69
(g90
g71
NtRp4108
(dp4109
g74
(dp4110
sg83
g4104
sg76
(lp4111
g69
(g70
g71
NtRp4112
(dp4113
g74
(dp4114
g82
I4
ssg83
g4108
sg76
(lp4115
S'^default/\\w+\\.py$'
p4116
asbasbasbag69
(g85
g71
NtRp4117
(dp4118
g74
(dp4119
sg83
g4087
sg76
(lp4120
g69
(g90
g71
NtRp4121
(dp4122
g74
(dp4123
sg83
g4117
sg76
(lp4124
g69
(g70
g71
NtRp4125
(dp4126
g74
(dp4127
g82
I4
ssg83
g4121
sg76
(lp4128
S'^default/index/\\w+\\.py$'
p4129
asbasbasbasbasbasbasbag69
(g85
g71
NtRp4130
(dp4131
g74
(dp4132
sg83
g3601
sg76
(lp4133
g69
(g90
g71
NtRp4134
(dp4135
g74
(dp4136
g94
g95
ssg83
g4130
sg76
(lp4137
S'postprocessing'
p4138
asbag69
(g90
g71
NtRp4139
(dp4140
g74
(dp4141
g101
g102
ssg83
g4130
sg76
(lp4142
S':'
asbag69
(g90
g71
NtRp4143
(dp4144
g74
(dp4145
sg83
g4130
sg76
(lp4146
g69
(g70
g71
NtRp4147
(dp4148
g74
(dp4149
g82
I5
ssg83
g4143
sg76
(lp4150
g69
(g78
g71
NtRp4151
(dp4152
g74
(dp4153
g82
I4
ssg83
Nsg76
(lp4154
sbasbasbasbag69
(g85
g71
NtRp4155
(dp4156
g74
(dp4157
sg83
g3601
sg76
(lp4158
g69
(g90
g71
NtRp4159
(dp4160
g74
(dp4161
g94
g95
ssg83
g4155
sg76
(lp4162
S'session_file'
p4163
asbag69
(g90
g71
NtRp4164
(dp4165
g74
(dp4166
g101
g102
ssg83
g4155
sg76
(lp4167
S':'
asbag69
(g90
g71
NtRp4168
(dp4169
g74
(dp4170
sg83
g4155
sg76
(lp4171
g69
(g70
g71
NtRp4172
(dp4173
g74
(dp4174
g82
I5
ssg83
g4168
sg76
(lp4175
S"<open file '/media/work/home/dev/python/asvpwapp/web2py/applications/asvpwapp/sessions/127.0.0.1-dad6e9ab-5619-437d-a0e7-f036e62e3fed', mode 'rb+' at 0x7fdc7c0f4d20>"
p4176
asbasbasbag69
(g85
g71
NtRp4177
(dp4178
g74
(dp4179
sg83
g3601
sg76
(lp4180
g69
(g90
g71
NtRp4181
(dp4182
g74
(dp4183
g94
g95
ssg83
g4177
sg76
(lp4184
S'session_filename'
p4185
asbag69
(g90
g71
NtRp4186
(dp4187
g74
(dp4188
g101
g102
ssg83
g4177
sg76
(lp4189
S':'
asbag69
(g90
g71
NtRp4190
(dp4191
g74
(dp4192
sg83
g4177
sg76
(lp4193
g69
(g70
g71
NtRp4194
(dp4195
g74
(dp4196
g82
I5
ssg83
g4190
sg76
(lp4197
S'/media/work/home/dev/python/asvpwapp/web2py/applications/asvpwapp/sessions/127.0.0.1-dad6e9ab-5619-437d-a0e7-f036e62e3fed'
p4198
asbasbasbag69
(g85
g71
NtRp4199
(dp4200
g74
(dp4201
sg83
g3601
sg76
(lp4202
g69
(g90
g71
NtRp4203
(dp4204
g74
(dp4205
g94
g95
ssg83
g4199
sg76
(lp4206
S'session_id'
p4207
asbag69
(g90
g71
NtRp4208
(dp4209
g74
(dp4210
g101
g102
ssg83
g4199
sg76
(lp4211
S':'
asbag69
(g90
g71
NtRp4212
(dp4213
g74
(dp4214
sg83
g4199
sg76
(lp4215
g69
(g70
g71
NtRp4216
(dp4217
g74
(dp4218
g82
I5
ssg83
g4212
sg76
(lp4219
g673
asbasbasbag69
(g85
g71
NtRp4220
(dp4221
g74
(dp4222
sg83
g3601
sg76
(lp4223
g69
(g90
g71
NtRp4224
(dp4225
g74
(dp4226
g94
g95
ssg83
g4220
sg76
(lp4227
S'session_id_name'
p4228
asbag69
(g90
g71
NtRp4229
(dp4230
g74
(dp4231
g101
g102
ssg83
g4220
sg76
(lp4232
S':'
asbag69
(g90
g71
NtRp4233
(dp4234
g74
(dp4235
sg83
g4220
sg76
(lp4236
g69
(g70
g71
NtRp4237
(dp4238
g74
(dp4239
g82
I5
ssg83
g4233
sg76
(lp4240
g3658
asbasbasbag69
(g85
g71
NtRp4241
(dp4242
g74
(dp4243
sg83
g3601
sg76
(lp4244
g69
(g90
g71
NtRp4245
(dp4246
g74
(dp4247
g94
g95
ssg83
g4241
sg76
(lp4248
S'session_locked'
p4249
asbag69
(g90
g71
NtRp4250
(dp4251
g74
(dp4252
g101
g102
ssg83
g4241
sg76
(lp4253
S':'
asbag69
(g90
g71
NtRp4254
(dp4255
g74
(dp4256
sg83
g4241
sg76
(lp4257
g69
(g70
g71
NtRp4258
(dp4259
g74
(dp4260
g82
I5
ssg83
g4254
sg76
(lp4261
g2084
asbasbasbag69
(g85
g71
NtRp4262
(dp4263
g74
(dp4264
sg83
g3601
sg76
(lp4265
g69
(g90
g71
NtRp4266
(dp4267
g74
(dp4268
g94
g95
ssg83
g4262
sg76
(lp4269
S'session_new'
p4270
asbag69
(g90
g71
NtRp4271
(dp4272
g74
(dp4273
g101
g102
ssg83
g4262
sg76
(lp4274
S':'
asbag69
(g90
g71
NtRp4275
(dp4276
g74
(dp4277
sg83
g4262
sg76
(lp4278
g69
(g70
g71
NtRp4279
(dp4280
g74
(dp4281
g82
I5
ssg83
g4275
sg76
(lp4282
g112
asbasbasbag69
(g85
g71
NtRp4283
(dp4284
g74
(dp4285
sg83
g3601
sg76
(lp4286
g69
(g90
g71
NtRp4287
(dp4288
g74
(dp4289
g94
g95
ssg83
g4283
sg76
(lp4290
S'status'
p4291
asbag69
(g90
g71
NtRp4292
(dp4293
g74
(dp4294
g101
g102
ssg83
g4283
sg76
(lp4295
S':'
asbag69
(g90
g71
NtRp4296
(dp4297
g74
(dp4298
sg83
g4283
sg76
(lp4299
g69
(g70
g71
NtRp4300
(dp4301
g74
(dp4302
g82
I5
ssg83
g4296
sg76
(lp4303
S'200'
p4304
asbasbasbag69
(g85
g71
NtRp4305
(dp4306
g74
(dp4307
sg83
g3601
sg76
(lp4308
g69
(g90
g71
NtRp4309
(dp4310
g74
(dp4311
g94
g95
ssg83
g4305
sg76
(lp4312
S'view'
p4313
asbag69
(g90
g71
NtRp4314
(dp4315
g74
(dp4316
g101
g102
ssg83
g4305
sg76
(lp4317
S':'
asbag69
(g90
g71
NtRp4318
(dp4319
g74
(dp4320
sg83
g4305
sg76
(lp4321
g69
(g70
g71
NtRp4322
(dp4323
g74
(dp4324
g82
I5
ssg83
g4318
sg76
(lp4325
S'default/index.html'
p4326
asbasbasbasbasbsS'locals'
p4327
(dp4328
S'postcreation_fields'
p4329
S'[]'
p4330
sS'field_type'
p4331
S"'int'"
p4332
sS'sortable'
p4333
S'3'
sS'sql_fields_aux'
p4334
S"{'id': {'sql': 'INTEGER PRIMARY KEY AUTOINCREMENT'}, 'name': {'sql': 'CHAR(512)'}}"
p4335
sS'TFK'
p4336
g21
sS'migrate'
p4337
g2084
sS'fields'
p4338
S"['id INTEGER PRIMARY KEY AUTOINCREMENT', 'name CHAR(512)']"
p4339
sS'self'
p4340
S'<gluon.dal.SQLiteAdapter object>'
p4341
sS'tablename'
p4342
S"'weapon_types'"
p4343
sS'fake_migrate'
p4344
g112
sS'db'
p4345
S'<DAL sqlite://storage.sqlite>'
p4346
sS'field'
p4347
S'<gluon.dal.Field object>'
p4348
sS'ftype'
p4349
S"'CHAR(512)'"
p4350
sS'polymodel'
p4351
S'None'
p4352
sS'table'
p4353
S'<Table weapon_types (id,name,default_target_size,picture,default_round_size)>'
p4354
sS'sql_fields'
p4355
S"{'id': {'sortable': 1, 'sql': 'INTEGER PRIMARY KEY AUTOINCREMENT', 'type': 'id'}, 'name': {'sortable': 2, 'sql': 'CHAR(512)', 'type': 'string'}}"
p4356
sS'field_name'
p4357
S"'default_target_size'"
p4358
sS'types'
p4359
S"{'big-id': 'BIGINT PRIMARY KEY AUTOINCREMENT', 'big-reference': 'BIGINT REFERENCES %(foreign_key)s ON DELETE %(on_delete_action)s', 'bigint': 'INTEGER', 'blob': 'BLOB', 'boolean': 'CHAR(1)', 'date': 'DATE', 'datetime': 'TIMESTAMP', 'decimal': 'DOUBLE', 'double': 'DOUBLE', 'float': 'DOUBLE', ...}"
p4360
sssS'traceback'
p4361
S'Traceback (most recent call last):\n  File "/media/work/home/dev/python/asvpwapp/web2py/gluon/restricted.py", line 209, in restricted\n    exec ccode in environment\n  File "/media/work/home/dev/python/asvpwapp/web2py/applications/asvpwapp/models/db.py", line 87, in <module>\n    Field(\'default_round_size\',\'int\'))\n  File "/media/work/home/dev/python/asvpwapp/web2py/gluon/dal.py", line 7095, in define_table\n    table = self.lazy_define_table(tablename,*fields,**args)\n  File "/media/work/home/dev/python/asvpwapp/web2py/gluon/dal.py", line 7126, in lazy_define_table\n    polymodel=polymodel)\n  File "/media/work/home/dev/python/asvpwapp/web2py/gluon/dal.py", line 809, in create_table\n    (field_type, field_name)\nSyntaxError: Field: unknown field type: int for default_target_size\n'
p4362
s.