(dp1
S'output'
p2
S''
sS'layer'
p3
S'Framework'
p4
sS'code'
p5
S''
sS'snapshot'
p6
(dp7
S'exception'
p8
(dp9
g5
S'1'
sS'__getslice__'
p10
S"<method-wrapper '__getslice__' of exceptions.SystemExit object>"
p11
sS'__str__'
p12
S"<method-wrapper '__str__' of exceptions.SystemExit object>"
p13
sS'__reduce__'
p14
S'<built-in method __reduce__ of exceptions.SystemExit object>'
p15
sS'__dict__'
p16
S'{}'
p17
sS'__sizeof__'
p18
S'<built-in method __sizeof__ of exceptions.SystemExit object>'
p19
sS'__init__'
p20
S"<method-wrapper '__init__' of exceptions.SystemExit object>"
p21
sS'__setattr__'
p22
S"<method-wrapper '__setattr__' of exceptions.SystemExit object>"
p23
sS'__reduce_ex__'
p24
S'<built-in method __reduce_ex__ of exceptions.SystemExit object>'
p25
sS'__new__'
p26
S'<built-in method __new__ of type object>'
p27
sS'__format__'
p28
S'<built-in method __format__ of exceptions.SystemExit object>'
p29
sS'__class__'
p30
S"<type 'exceptions.SystemExit'>"
p31
sS'__doc__'
p32
S"'Request to exit from the interpreter.'"
p33
sS'__getitem__'
p34
S"<method-wrapper '__getitem__' of exceptions.SystemExit object>"
p35
sS'__setstate__'
p36
S'<built-in method __setstate__ of exceptions.SystemExit object>'
p37
sS'__getattribute__'
p38
S"<method-wrapper '__getattribute__' of exceptions.SystemExit object>"
p39
sS'args'
p40
S'(1,)'
p41
sS'__subclasshook__'
p42
S'<built-in method __subclasshook__ of type object>'
p43
sS'__unicode__'
p44
S'<built-in method __unicode__ of exceptions.SystemExit object>'
p45
sS'__delattr__'
p46
S"<method-wrapper '__delattr__' of exceptions.SystemExit object>"
p47
sS'__repr__'
p48
S"<method-wrapper '__repr__' of exceptions.SystemExit object>"
p49
sS'__hash__'
p50
S"<method-wrapper '__hash__' of exceptions.SystemExit object>"
p51
ssS'evalue'
p52
S'1'
sS'request'
p53
ccopy_reg
_reconstructor
p54
(cgluon.html
BEAUTIFY
p55
c__builtin__
object
p56
NtRp57
(dp58
S'attributes'
p59
(dp60
sS'components'
p61
(lp62
g54
(cgluon.html
TABLE
p63
g56
NtRp64
(dp65
g59
(dp66
S'level'
p67
I5
ssS'parent'
p68
Nsg61
(lp69
g54
(cgluon.html
TR
p70
g56
NtRp71
(dp72
g59
(dp73
sg68
g64
sg61
(lp74
g54
(cgluon.html
TD
p75
g56
NtRp76
(dp77
g59
(dp78
S'_style'
p79
S'font-weight:bold;vertical-align:top'
p80
ssg68
g71
sg61
(lp81
S'ajax'
p82
asbag54
(g75
g56
NtRp83
(dp84
g59
(dp85
S'_valign'
p86
S'top'
p87
ssg68
g71
sg61
(lp88
S':'
asbag54
(g75
g56
NtRp89
(dp90
g59
(dp91
sg68
g71
sg61
(lp92
g54
(g55
g56
NtRp93
(dp94
g59
(dp95
g67
I5
ssg68
g89
sg61
(lp96
S'True'
p97
asbasbasbag54
(g70
g56
NtRp98
(dp99
g59
(dp100
sg68
g64
sg61
(lp101
g54
(g75
g56
NtRp102
(dp103
g59
(dp104
g79
g80
ssg68
g98
sg61
(lp105
S'application'
p106
asbag54
(g75
g56
NtRp107
(dp108
g59
(dp109
g86
g87
ssg68
g98
sg61
(lp110
S':'
asbag54
(g75
g56
NtRp111
(dp112
g59
(dp113
sg68
g98
sg61
(lp114
g54
(g55
g56
NtRp115
(dp116
g59
(dp117
g67
I5
ssg68
g111
sg61
(lp118
S'admin'
p119
asbasbasbag54
(g70
g56
NtRp120
(dp121
g59
(dp122
sg68
g64
sg61
(lp123
g54
(g75
g56
NtRp124
(dp125
g59
(dp126
g79
g80
ssg68
g120
sg61
(lp127
g40
asbag54
(g75
g56
NtRp128
(dp129
g59
(dp130
g86
g87
ssg68
g120
sg61
(lp131
S':'
asbag54
(g75
g56
NtRp132
(dp133
g59
(dp134
sg68
g120
sg61
(lp135
g54
(g55
g56
NtRp136
(dp137
g59
(dp138
g67
I5
ssg68
g132
sg61
(lp139
g54
(g63
g56
NtRp140
(dp141
g59
(dp142
g67
I4
ssg68
Nsg61
(lp143
g54
(g70
g56
NtRp144
(dp145
g59
(dp146
sg68
g140
sg61
(lp147
g54
(g75
g56
NtRp148
(dp149
g59
(dp150
sg68
g144
sg61
(lp151
g54
(g55
g56
NtRp152
(dp153
g59
(dp154
g67
I4
ssg68
g148
sg61
(lp155
S'home'
p156
asbasbasbasbasbasbasbag54
(g70
g56
NtRp157
(dp158
g59
(dp159
sg68
g64
sg61
(lp160
g54
(g75
g56
NtRp161
(dp162
g59
(dp163
g79
g80
ssg68
g157
sg61
(lp164
S'body'
p165
asbag54
(g75
g56
NtRp166
(dp167
g59
(dp168
g86
g87
ssg68
g157
sg61
(lp169
S':'
asbag54
(g75
g56
NtRp170
(dp171
g59
(dp172
sg68
g157
sg61
(lp173
g54
(g55
g56
NtRp174
(dp175
g59
(dp176
g67
I5
ssg68
g170
sg61
(lp177
S"<closed file '<fdopen>', mode 'w+b' at 0x03E96D88>"
p178
asbasbasbag54
(g70
g56
NtRp179
(dp180
g59
(dp181
sg68
g64
sg61
(lp182
g54
(g75
g56
NtRp183
(dp184
g59
(dp185
g79
g80
ssg68
g179
sg61
(lp186
S'cid'
p187
asbag54
(g75
g56
NtRp188
(dp189
g59
(dp190
g86
g87
ssg68
g179
sg61
(lp191
S':'
asbag54
(g75
g56
NtRp192
(dp193
g59
(dp194
sg68
g179
sg61
(lp195
g54
(g55
g56
NtRp196
(dp197
g59
(dp198
g67
I5
ssg68
g192
sg61
(lp199
S'None'
p200
asbasbasbag54
(g70
g56
NtRp201
(dp202
g59
(dp203
sg68
g64
sg61
(lp204
g54
(g75
g56
NtRp205
(dp206
g59
(dp207
g79
g80
ssg68
g201
sg61
(lp208
S'client'
p209
asbag54
(g75
g56
NtRp210
(dp211
g59
(dp212
g86
g87
ssg68
g201
sg61
(lp213
S':'
asbag54
(g75
g56
NtRp214
(dp215
g59
(dp216
sg68
g201
sg61
(lp217
g54
(g55
g56
NtRp218
(dp219
g59
(dp220
g67
I5
ssg68
g214
sg61
(lp221
S'127.0.0.1'
p222
asbasbasbag54
(g70
g56
NtRp223
(dp224
g59
(dp225
sg68
g64
sg61
(lp226
g54
(g75
g56
NtRp227
(dp228
g59
(dp229
g79
g80
ssg68
g223
sg61
(lp230
S'controller'
p231
asbag54
(g75
g56
NtRp232
(dp233
g59
(dp234
g86
g87
ssg68
g223
sg61
(lp235
S':'
asbag54
(g75
g56
NtRp236
(dp237
g59
(dp238
sg68
g223
sg61
(lp239
g54
(g55
g56
NtRp240
(dp241
g59
(dp242
g67
I5
ssg68
g236
sg61
(lp243
S'shell'
p244
asbasbasbag54
(g70
g56
NtRp245
(dp246
g59
(dp247
sg68
g64
sg61
(lp248
g54
(g75
g56
NtRp249
(dp250
g59
(dp251
g79
g80
ssg68
g245
sg61
(lp252
S'cookies'
p253
asbag54
(g75
g56
NtRp254
(dp255
g59
(dp256
g86
g87
ssg68
g245
sg61
(lp257
S':'
asbag54
(g75
g56
NtRp258
(dp259
g59
(dp260
sg68
g245
sg61
(lp261
g54
(g55
g56
NtRp262
(dp263
g59
(dp264
g67
I5
ssg68
g258
sg61
(lp265
g54
(g63
g56
NtRp266
(dp267
g59
(dp268
g67
I4
ssg68
Nsg61
(lp269
g54
(g70
g56
NtRp270
(dp271
g59
(dp272
sg68
g266
sg61
(lp273
g54
(g75
g56
NtRp274
(dp275
g59
(dp276
g79
g80
ssg68
g270
sg61
(lp277
S'session_id_a_f_report_tool'
p278
asbag54
(g75
g56
NtRp279
(dp280
g59
(dp281
g86
g87
ssg68
g270
sg61
(lp282
S':'
asbag54
(g75
g56
NtRp283
(dp284
g59
(dp285
sg68
g270
sg61
(lp286
g54
(g55
g56
NtRp287
(dp288
g59
(dp289
g67
I4
ssg68
g283
sg61
(lp290
S'127.0.0.1-f3936a9b-92d2-4b72-a5a5-4122d9517c3b'
p291
ag54
(g63
g56
NtRp292
(dp293
g59
(dp294
g67
I3
ssg68
Nsg61
(lp295
g54
(g70
g56
NtRp296
(dp297
g59
(dp298
sg68
g292
sg61
(lp299
g54
(g75
g56
NtRp300
(dp301
g59
(dp302
g79
g80
ssg68
g296
sg61
(lp303
S'comment'
p304
asbag54
(g75
g56
NtRp305
(dp306
g59
(dp307
g86
g87
ssg68
g296
sg61
(lp308
S':'
asbag54
(g75
g56
NtRp309
(dp310
g59
(dp311
sg68
g296
sg61
(lp312
g54
(g55
g56
NtRp313
(dp314
g59
(dp315
g67
I3
ssg68
g309
sg61
(lp316
S''
asbasbasbag54
(g70
g56
NtRp317
(dp318
g59
(dp319
sg68
g292
sg61
(lp320
g54
(g75
g56
NtRp321
(dp322
g59
(dp323
g79
g80
ssg68
g317
sg61
(lp324
S'domain'
p325
asbag54
(g75
g56
NtRp326
(dp327
g59
(dp328
g86
g87
ssg68
g317
sg61
(lp329
S':'
asbag54
(g75
g56
NtRp330
(dp331
g59
(dp332
sg68
g317
sg61
(lp333
g54
(g55
g56
NtRp334
(dp335
g59
(dp336
g67
I3
ssg68
g330
sg61
(lp337
S''
asbasbasbag54
(g70
g56
NtRp338
(dp339
g59
(dp340
sg68
g292
sg61
(lp341
g54
(g75
g56
NtRp342
(dp343
g59
(dp344
g79
g80
ssg68
g338
sg61
(lp345
S'expires'
p346
asbag54
(g75
g56
NtRp347
(dp348
g59
(dp349
g86
g87
ssg68
g338
sg61
(lp350
S':'
asbag54
(g75
g56
NtRp351
(dp352
g59
(dp353
sg68
g338
sg61
(lp354
g54
(g55
g56
NtRp355
(dp356
g59
(dp357
g67
I3
ssg68
g351
sg61
(lp358
S''
asbasbasbag54
(g70
g56
NtRp359
(dp360
g59
(dp361
sg68
g292
sg61
(lp362
g54
(g75
g56
NtRp363
(dp364
g59
(dp365
g79
g80
ssg68
g359
sg61
(lp366
S'httponly'
p367
asbag54
(g75
g56
NtRp368
(dp369
g59
(dp370
g86
g87
ssg68
g359
sg61
(lp371
S':'
asbag54
(g75
g56
NtRp372
(dp373
g59
(dp374
sg68
g359
sg61
(lp375
g54
(g55
g56
NtRp376
(dp377
g59
(dp378
g67
I3
ssg68
g372
sg61
(lp379
S''
asbasbasbag54
(g70
g56
NtRp380
(dp381
g59
(dp382
sg68
g292
sg61
(lp383
g54
(g75
g56
NtRp384
(dp385
g59
(dp386
g79
g80
ssg68
g380
sg61
(lp387
S'max-age'
p388
asbag54
(g75
g56
NtRp389
(dp390
g59
(dp391
g86
g87
ssg68
g380
sg61
(lp392
S':'
asbag54
(g75
g56
NtRp393
(dp394
g59
(dp395
sg68
g380
sg61
(lp396
g54
(g55
g56
NtRp397
(dp398
g59
(dp399
g67
I3
ssg68
g393
sg61
(lp400
S''
asbasbasbag54
(g70
g56
NtRp401
(dp402
g59
(dp403
sg68
g292
sg61
(lp404
g54
(g75
g56
NtRp405
(dp406
g59
(dp407
g79
g80
ssg68
g401
sg61
(lp408
S'path'
p409
asbag54
(g75
g56
NtRp410
(dp411
g59
(dp412
g86
g87
ssg68
g401
sg61
(lp413
S':'
asbag54
(g75
g56
NtRp414
(dp415
g59
(dp416
sg68
g401
sg61
(lp417
g54
(g55
g56
NtRp418
(dp419
g59
(dp420
g67
I3
ssg68
g414
sg61
(lp421
S''
asbasbasbag54
(g70
g56
NtRp422
(dp423
g59
(dp424
sg68
g292
sg61
(lp425
g54
(g75
g56
NtRp426
(dp427
g59
(dp428
g79
g80
ssg68
g422
sg61
(lp429
S'secure'
p430
asbag54
(g75
g56
NtRp431
(dp432
g59
(dp433
g86
g87
ssg68
g422
sg61
(lp434
S':'
asbag54
(g75
g56
NtRp435
(dp436
g59
(dp437
sg68
g422
sg61
(lp438
g54
(g55
g56
NtRp439
(dp440
g59
(dp441
g67
I3
ssg68
g435
sg61
(lp442
S''
asbasbasbag54
(g70
g56
NtRp443
(dp444
g59
(dp445
sg68
g292
sg61
(lp446
g54
(g75
g56
NtRp447
(dp448
g59
(dp449
g79
g80
ssg68
g443
sg61
(lp450
S'version'
p451
asbag54
(g75
g56
NtRp452
(dp453
g59
(dp454
g86
g87
ssg68
g443
sg61
(lp455
S':'
asbag54
(g75
g56
NtRp456
(dp457
g59
(dp458
sg68
g443
sg61
(lp459
g54
(g55
g56
NtRp460
(dp461
g59
(dp462
g67
I3
ssg68
g456
sg61
(lp463
S''
asbasbasbasbasbasbasbag54
(g70
g56
NtRp464
(dp465
g59
(dp466
sg68
g266
sg61
(lp467
g54
(g75
g56
NtRp468
(dp469
g59
(dp470
g79
g80
ssg68
g464
sg61
(lp471
S'session_id_admin'
p472
asbag54
(g75
g56
NtRp473
(dp474
g59
(dp475
g86
g87
ssg68
g464
sg61
(lp476
S':'
asbag54
(g75
g56
NtRp477
(dp478
g59
(dp479
sg68
g464
sg61
(lp480
g54
(g55
g56
NtRp481
(dp482
g59
(dp483
g67
I4
ssg68
g477
sg61
(lp484
S'127.0.0.1-a3cb7328-1114-4610-8fd0-fd9c96816f71'
p485
ag54
(g63
g56
NtRp486
(dp487
g59
(dp488
g67
I3
ssg68
Nsg61
(lp489
g54
(g70
g56
NtRp490
(dp491
g59
(dp492
sg68
g486
sg61
(lp493
g54
(g75
g56
NtRp494
(dp495
g59
(dp496
g79
g80
ssg68
g490
sg61
(lp497
g304
asbag54
(g75
g56
NtRp498
(dp499
g59
(dp500
g86
g87
ssg68
g490
sg61
(lp501
S':'
asbag54
(g75
g56
NtRp502
(dp503
g59
(dp504
sg68
g490
sg61
(lp505
g54
(g55
g56
NtRp506
(dp507
g59
(dp508
g67
I3
ssg68
g502
sg61
(lp509
S''
asbasbasbag54
(g70
g56
NtRp510
(dp511
g59
(dp512
sg68
g486
sg61
(lp513
g54
(g75
g56
NtRp514
(dp515
g59
(dp516
g79
g80
ssg68
g510
sg61
(lp517
g325
asbag54
(g75
g56
NtRp518
(dp519
g59
(dp520
g86
g87
ssg68
g510
sg61
(lp521
S':'
asbag54
(g75
g56
NtRp522
(dp523
g59
(dp524
sg68
g510
sg61
(lp525
g54
(g55
g56
NtRp526
(dp527
g59
(dp528
g67
I3
ssg68
g522
sg61
(lp529
S''
asbasbasbag54
(g70
g56
NtRp530
(dp531
g59
(dp532
sg68
g486
sg61
(lp533
g54
(g75
g56
NtRp534
(dp535
g59
(dp536
g79
g80
ssg68
g530
sg61
(lp537
g346
asbag54
(g75
g56
NtRp538
(dp539
g59
(dp540
g86
g87
ssg68
g530
sg61
(lp541
S':'
asbag54
(g75
g56
NtRp542
(dp543
g59
(dp544
sg68
g530
sg61
(lp545
g54
(g55
g56
NtRp546
(dp547
g59
(dp548
g67
I3
ssg68
g542
sg61
(lp549
S''
asbasbasbag54
(g70
g56
NtRp550
(dp551
g59
(dp552
sg68
g486
sg61
(lp553
g54
(g75
g56
NtRp554
(dp555
g59
(dp556
g79
g80
ssg68
g550
sg61
(lp557
g367
asbag54
(g75
g56
NtRp558
(dp559
g59
(dp560
g86
g87
ssg68
g550
sg61
(lp561
S':'
asbag54
(g75
g56
NtRp562
(dp563
g59
(dp564
sg68
g550
sg61
(lp565
g54
(g55
g56
NtRp566
(dp567
g59
(dp568
g67
I3
ssg68
g562
sg61
(lp569
S''
asbasbasbag54
(g70
g56
NtRp570
(dp571
g59
(dp572
sg68
g486
sg61
(lp573
g54
(g75
g56
NtRp574
(dp575
g59
(dp576
g79
g80
ssg68
g570
sg61
(lp577
g388
asbag54
(g75
g56
NtRp578
(dp579
g59
(dp580
g86
g87
ssg68
g570
sg61
(lp581
S':'
asbag54
(g75
g56
NtRp582
(dp583
g59
(dp584
sg68
g570
sg61
(lp585
g54
(g55
g56
NtRp586
(dp587
g59
(dp588
g67
I3
ssg68
g582
sg61
(lp589
S''
asbasbasbag54
(g70
g56
NtRp590
(dp591
g59
(dp592
sg68
g486
sg61
(lp593
g54
(g75
g56
NtRp594
(dp595
g59
(dp596
g79
g80
ssg68
g590
sg61
(lp597
g409
asbag54
(g75
g56
NtRp598
(dp599
g59
(dp600
g86
g87
ssg68
g590
sg61
(lp601
S':'
asbag54
(g75
g56
NtRp602
(dp603
g59
(dp604
sg68
g590
sg61
(lp605
g54
(g55
g56
NtRp606
(dp607
g59
(dp608
g67
I3
ssg68
g602
sg61
(lp609
S''
asbasbasbag54
(g70
g56
NtRp610
(dp611
g59
(dp612
sg68
g486
sg61
(lp613
g54
(g75
g56
NtRp614
(dp615
g59
(dp616
g79
g80
ssg68
g610
sg61
(lp617
g430
asbag54
(g75
g56
NtRp618
(dp619
g59
(dp620
g86
g87
ssg68
g610
sg61
(lp621
S':'
asbag54
(g75
g56
NtRp622
(dp623
g59
(dp624
sg68
g610
sg61
(lp625
g54
(g55
g56
NtRp626
(dp627
g59
(dp628
g67
I3
ssg68
g622
sg61
(lp629
S''
asbasbasbag54
(g70
g56
NtRp630
(dp631
g59
(dp632
sg68
g486
sg61
(lp633
g54
(g75
g56
NtRp634
(dp635
g59
(dp636
g79
g80
ssg68
g630
sg61
(lp637
g451
asbag54
(g75
g56
NtRp638
(dp639
g59
(dp640
g86
g87
ssg68
g630
sg61
(lp641
S':'
asbag54
(g75
g56
NtRp642
(dp643
g59
(dp644
sg68
g630
sg61
(lp645
g54
(g55
g56
NtRp646
(dp647
g59
(dp648
g67
I3
ssg68
g642
sg61
(lp649
S''
asbasbasbasbasbasbasbag54
(g70
g56
NtRp650
(dp651
g59
(dp652
sg68
g266
sg61
(lp653
g54
(g75
g56
NtRp654
(dp655
g59
(dp656
g79
g80
ssg68
g650
sg61
(lp657
S'session_id_home'
p658
asbag54
(g75
g56
NtRp659
(dp660
g59
(dp661
g86
g87
ssg68
g650
sg61
(lp662
S':'
asbag54
(g75
g56
NtRp663
(dp664
g59
(dp665
sg68
g650
sg61
(lp666
g54
(g55
g56
NtRp667
(dp668
g59
(dp669
g67
I4
ssg68
g663
sg61
(lp670
S'127.0.0.1-a6ef227c-6672-46ba-be75-c1a625f41610'
p671
ag54
(g63
g56
NtRp672
(dp673
g59
(dp674
g67
I3
ssg68
Nsg61
(lp675
g54
(g70
g56
NtRp676
(dp677
g59
(dp678
sg68
g672
sg61
(lp679
g54
(g75
g56
NtRp680
(dp681
g59
(dp682
g79
g80
ssg68
g676
sg61
(lp683
g304
asbag54
(g75
g56
NtRp684
(dp685
g59
(dp686
g86
g87
ssg68
g676
sg61
(lp687
S':'
asbag54
(g75
g56
NtRp688
(dp689
g59
(dp690
sg68
g676
sg61
(lp691
g54
(g55
g56
NtRp692
(dp693
g59
(dp694
g67
I3
ssg68
g688
sg61
(lp695
S''
asbasbasbag54
(g70
g56
NtRp696
(dp697
g59
(dp698
sg68
g672
sg61
(lp699
g54
(g75
g56
NtRp700
(dp701
g59
(dp702
g79
g80
ssg68
g696
sg61
(lp703
g325
asbag54
(g75
g56
NtRp704
(dp705
g59
(dp706
g86
g87
ssg68
g696
sg61
(lp707
S':'
asbag54
(g75
g56
NtRp708
(dp709
g59
(dp710
sg68
g696
sg61
(lp711
g54
(g55
g56
NtRp712
(dp713
g59
(dp714
g67
I3
ssg68
g708
sg61
(lp715
S''
asbasbasbag54
(g70
g56
NtRp716
(dp717
g59
(dp718
sg68
g672
sg61
(lp719
g54
(g75
g56
NtRp720
(dp721
g59
(dp722
g79
g80
ssg68
g716
sg61
(lp723
g346
asbag54
(g75
g56
NtRp724
(dp725
g59
(dp726
g86
g87
ssg68
g716
sg61
(lp727
S':'
asbag54
(g75
g56
NtRp728
(dp729
g59
(dp730
sg68
g716
sg61
(lp731
g54
(g55
g56
NtRp732
(dp733
g59
(dp734
g67
I3
ssg68
g728
sg61
(lp735
S''
asbasbasbag54
(g70
g56
NtRp736
(dp737
g59
(dp738
sg68
g672
sg61
(lp739
g54
(g75
g56
NtRp740
(dp741
g59
(dp742
g79
g80
ssg68
g736
sg61
(lp743
g367
asbag54
(g75
g56
NtRp744
(dp745
g59
(dp746
g86
g87
ssg68
g736
sg61
(lp747
S':'
asbag54
(g75
g56
NtRp748
(dp749
g59
(dp750
sg68
g736
sg61
(lp751
g54
(g55
g56
NtRp752
(dp753
g59
(dp754
g67
I3
ssg68
g748
sg61
(lp755
S''
asbasbasbag54
(g70
g56
NtRp756
(dp757
g59
(dp758
sg68
g672
sg61
(lp759
g54
(g75
g56
NtRp760
(dp761
g59
(dp762
g79
g80
ssg68
g756
sg61
(lp763
g388
asbag54
(g75
g56
NtRp764
(dp765
g59
(dp766
g86
g87
ssg68
g756
sg61
(lp767
S':'
asbag54
(g75
g56
NtRp768
(dp769
g59
(dp770
sg68
g756
sg61
(lp771
g54
(g55
g56
NtRp772
(dp773
g59
(dp774
g67
I3
ssg68
g768
sg61
(lp775
S''
asbasbasbag54
(g70
g56
NtRp776
(dp777
g59
(dp778
sg68
g672
sg61
(lp779
g54
(g75
g56
NtRp780
(dp781
g59
(dp782
g79
g80
ssg68
g776
sg61
(lp783
g409
asbag54
(g75
g56
NtRp784
(dp785
g59
(dp786
g86
g87
ssg68
g776
sg61
(lp787
S':'
asbag54
(g75
g56
NtRp788
(dp789
g59
(dp790
sg68
g776
sg61
(lp791
g54
(g55
g56
NtRp792
(dp793
g59
(dp794
g67
I3
ssg68
g788
sg61
(lp795
S''
asbasbasbag54
(g70
g56
NtRp796
(dp797
g59
(dp798
sg68
g672
sg61
(lp799
g54
(g75
g56
NtRp800
(dp801
g59
(dp802
g79
g80
ssg68
g796
sg61
(lp803
g430
asbag54
(g75
g56
NtRp804
(dp805
g59
(dp806
g86
g87
ssg68
g796
sg61
(lp807
S':'
asbag54
(g75
g56
NtRp808
(dp809
g59
(dp810
sg68
g796
sg61
(lp811
g54
(g55
g56
NtRp812
(dp813
g59
(dp814
g67
I3
ssg68
g808
sg61
(lp815
S''
asbasbasbag54
(g70
g56
NtRp816
(dp817
g59
(dp818
sg68
g672
sg61
(lp819
g54
(g75
g56
NtRp820
(dp821
g59
(dp822
g79
g80
ssg68
g816
sg61
(lp823
g451
asbag54
(g75
g56
NtRp824
(dp825
g59
(dp826
g86
g87
ssg68
g816
sg61
(lp827
S':'
asbag54
(g75
g56
NtRp828
(dp829
g59
(dp830
sg68
g816
sg61
(lp831
g54
(g55
g56
NtRp832
(dp833
g59
(dp834
g67
I3
ssg68
g828
sg61
(lp835
S''
asbasbasbasbasbasbasbag54
(g70
g56
NtRp836
(dp837
g59
(dp838
sg68
g266
sg61
(lp839
g54
(g75
g56
NtRp840
(dp841
g59
(dp842
g79
g80
ssg68
g836
sg61
(lp843
S'session_id_welcome'
p844
asbag54
(g75
g56
NtRp845
(dp846
g59
(dp847
g86
g87
ssg68
g836
sg61
(lp848
S':'
asbag54
(g75
g56
NtRp849
(dp850
g59
(dp851
sg68
g836
sg61
(lp852
g54
(g55
g56
NtRp853
(dp854
g59
(dp855
g67
I4
ssg68
g849
sg61
(lp856
S'127.0.0.1-01815780-1d66-47f0-89af-f751a6da73c0'
p857
ag54
(g63
g56
NtRp858
(dp859
g59
(dp860
g67
I3
ssg68
Nsg61
(lp861
g54
(g70
g56
NtRp862
(dp863
g59
(dp864
sg68
g858
sg61
(lp865
g54
(g75
g56
NtRp866
(dp867
g59
(dp868
g79
g80
ssg68
g862
sg61
(lp869
g304
asbag54
(g75
g56
NtRp870
(dp871
g59
(dp872
g86
g87
ssg68
g862
sg61
(lp873
S':'
asbag54
(g75
g56
NtRp874
(dp875
g59
(dp876
sg68
g862
sg61
(lp877
g54
(g55
g56
NtRp878
(dp879
g59
(dp880
g67
I3
ssg68
g874
sg61
(lp881
S''
asbasbasbag54
(g70
g56
NtRp882
(dp883
g59
(dp884
sg68
g858
sg61
(lp885
g54
(g75
g56
NtRp886
(dp887
g59
(dp888
g79
g80
ssg68
g882
sg61
(lp889
g325
asbag54
(g75
g56
NtRp890
(dp891
g59
(dp892
g86
g87
ssg68
g882
sg61
(lp893
S':'
asbag54
(g75
g56
NtRp894
(dp895
g59
(dp896
sg68
g882
sg61
(lp897
g54
(g55
g56
NtRp898
(dp899
g59
(dp900
g67
I3
ssg68
g894
sg61
(lp901
S''
asbasbasbag54
(g70
g56
NtRp902
(dp903
g59
(dp904
sg68
g858
sg61
(lp905
g54
(g75
g56
NtRp906
(dp907
g59
(dp908
g79
g80
ssg68
g902
sg61
(lp909
g346
asbag54
(g75
g56
NtRp910
(dp911
g59
(dp912
g86
g87
ssg68
g902
sg61
(lp913
S':'
asbag54
(g75
g56
NtRp914
(dp915
g59
(dp916
sg68
g902
sg61
(lp917
g54
(g55
g56
NtRp918
(dp919
g59
(dp920
g67
I3
ssg68
g914
sg61
(lp921
S''
asbasbasbag54
(g70
g56
NtRp922
(dp923
g59
(dp924
sg68
g858
sg61
(lp925
g54
(g75
g56
NtRp926
(dp927
g59
(dp928
g79
g80
ssg68
g922
sg61
(lp929
g367
asbag54
(g75
g56
NtRp930
(dp931
g59
(dp932
g86
g87
ssg68
g922
sg61
(lp933
S':'
asbag54
(g75
g56
NtRp934
(dp935
g59
(dp936
sg68
g922
sg61
(lp937
g54
(g55
g56
NtRp938
(dp939
g59
(dp940
g67
I3
ssg68
g934
sg61
(lp941
S''
asbasbasbag54
(g70
g56
NtRp942
(dp943
g59
(dp944
sg68
g858
sg61
(lp945
g54
(g75
g56
NtRp946
(dp947
g59
(dp948
g79
g80
ssg68
g942
sg61
(lp949
g388
asbag54
(g75
g56
NtRp950
(dp951
g59
(dp952
g86
g87
ssg68
g942
sg61
(lp953
S':'
asbag54
(g75
g56
NtRp954
(dp955
g59
(dp956
sg68
g942
sg61
(lp957
g54
(g55
g56
NtRp958
(dp959
g59
(dp960
g67
I3
ssg68
g954
sg61
(lp961
S''
asbasbasbag54
(g70
g56
NtRp962
(dp963
g59
(dp964
sg68
g858
sg61
(lp965
g54
(g75
g56
NtRp966
(dp967
g59
(dp968
g79
g80
ssg68
g962
sg61
(lp969
g409
asbag54
(g75
g56
NtRp970
(dp971
g59
(dp972
g86
g87
ssg68
g962
sg61
(lp973
S':'
asbag54
(g75
g56
NtRp974
(dp975
g59
(dp976
sg68
g962
sg61
(lp977
g54
(g55
g56
NtRp978
(dp979
g59
(dp980
g67
I3
ssg68
g974
sg61
(lp981
S''
asbasbasbag54
(g70
g56
NtRp982
(dp983
g59
(dp984
sg68
g858
sg61
(lp985
g54
(g75
g56
NtRp986
(dp987
g59
(dp988
g79
g80
ssg68
g982
sg61
(lp989
g430
asbag54
(g75
g56
NtRp990
(dp991
g59
(dp992
g86
g87
ssg68
g982
sg61
(lp993
S':'
asbag54
(g75
g56
NtRp994
(dp995
g59
(dp996
sg68
g982
sg61
(lp997
g54
(g55
g56
NtRp998
(dp999
g59
(dp1000
g67
I3
ssg68
g994
sg61
(lp1001
S''
asbasbasbag54
(g70
g56
NtRp1002
(dp1003
g59
(dp1004
sg68
g858
sg61
(lp1005
g54
(g75
g56
NtRp1006
(dp1007
g59
(dp1008
g79
g80
ssg68
g1002
sg61
(lp1009
g451
asbag54
(g75
g56
NtRp1010
(dp1011
g59
(dp1012
g86
g87
ssg68
g1002
sg61
(lp1013
S':'
asbag54
(g75
g56
NtRp1014
(dp1015
g59
(dp1016
sg68
g1002
sg61
(lp1017
g54
(g55
g56
NtRp1018
(dp1019
g59
(dp1020
g67
I3
ssg68
g1014
sg61
(lp1021
S''
asbasbasbasbasbasbasbasbasbasbasbag54
(g70
g56
NtRp1022
(dp1023
g59
(dp1024
sg68
g64
sg61
(lp1025
g54
(g75
g56
NtRp1026
(dp1027
g59
(dp1028
g79
g80
ssg68
g1022
sg61
(lp1029
S'env'
p1030
asbag54
(g75
g56
NtRp1031
(dp1032
g59
(dp1033
g86
g87
ssg68
g1022
sg61
(lp1034
S':'
asbag54
(g75
g56
NtRp1035
(dp1036
g59
(dp1037
sg68
g1022
sg61
(lp1038
g54
(g55
g56
NtRp1039
(dp1040
g59
(dp1041
g67
I5
ssg68
g1035
sg61
(lp1042
g54
(g63
g56
NtRp1043
(dp1044
g59
(dp1045
g67
I4
ssg68
Nsg61
(lp1046
g54
(g70
g56
NtRp1047
(dp1048
g59
(dp1049
sg68
g1043
sg61
(lp1050
g54
(g75
g56
NtRp1051
(dp1052
g59
(dp1053
g79
g80
ssg68
g1047
sg61
(lp1054
S'app_folders'
p1055
asbag54
(g75
g56
NtRp1056
(dp1057
g59
(dp1058
g86
g87
ssg68
g1047
sg61
(lp1059
S':'
asbag54
(g75
g56
NtRp1060
(dp1061
g59
(dp1062
sg68
g1047
sg61
(lp1063
g54
(g55
g56
NtRp1064
(dp1065
g59
(dp1066
g67
I4
ssg68
g1060
sg61
(lp1067
S"set(['D:\\\\home\\\\dev\\\\python\\\\web2py\\\\applications\\\\welcome\\\\', 'D:\\\\home\\\\dev\\\\python\\\\web2py\\\\applications\\\\admin\\\\', 'D:\\\\home\\\\dev\\\\python\\\\web2py\\\\applications\\\\A_F_Report_Tool\\\\', 'D:\\\\home\\\\dev\\\\python\\\\web2py\\\\applications\\\\home\\\\'])"
p1068
asbasbasbag54
(g70
g56
NtRp1069
(dp1070
g59
(dp1071
sg68
g1043
sg61
(lp1072
g54
(g75
g56
NtRp1073
(dp1074
g59
(dp1075
g79
g80
ssg68
g1069
sg61
(lp1076
S'applications_parent'
p1077
asbag54
(g75
g56
NtRp1078
(dp1079
g59
(dp1080
g86
g87
ssg68
g1069
sg61
(lp1081
S':'
asbag54
(g75
g56
NtRp1082
(dp1083
g59
(dp1084
sg68
g1069
sg61
(lp1085
g54
(g55
g56
NtRp1086
(dp1087
g59
(dp1088
g67
I4
ssg68
g1082
sg61
(lp1089
S'D:\\home\\dev\\python\\web2py'
p1090
asbasbasbag54
(g70
g56
NtRp1091
(dp1092
g59
(dp1093
sg68
g1043
sg61
(lp1094
g54
(g75
g56
NtRp1095
(dp1096
g59
(dp1097
g79
g80
ssg68
g1091
sg61
(lp1098
S'cmd_args'
p1099
asbag54
(g75
g56
NtRp1100
(dp1101
g59
(dp1102
g86
g87
ssg68
g1091
sg61
(lp1103
S':'
asbag54
(g75
g56
NtRp1104
(dp1105
g59
(dp1106
sg68
g1091
sg61
(lp1107
g54
(g55
g56
NtRp1108
(dp1109
g59
(dp1110
g67
I4
ssg68
g1104
sg61
(lp1111
g54
(g63
g56
NtRp1112
(dp1113
g59
(dp1114
g67
I3
ssg68
Nsg61
(lp1115
sbasbasbasbag54
(g70
g56
NtRp1116
(dp1117
g59
(dp1118
sg68
g1043
sg61
(lp1119
g54
(g75
g56
NtRp1120
(dp1121
g59
(dp1122
g79
g80
ssg68
g1116
sg61
(lp1123
S'cmd_options'
p1124
asbag54
(g75
g56
NtRp1125
(dp1126
g59
(dp1127
g86
g87
ssg68
g1116
sg61
(lp1128
S':'
asbag54
(g75
g56
NtRp1129
(dp1130
g59
(dp1131
sg68
g1116
sg61
(lp1132
g54
(g55
g56
NtRp1133
(dp1134
g59
(dp1135
g67
I4
ssg68
g1129
sg61
(lp1136
S"<Values at 0x3294d50: {'verbose': False, 'ip': '127.0.0.1', 'with_scheduler': False, 'ips': ['172.16.102.227', '192.168.1.93'], 'shutdown_timeout': 5, 'taskbar': False, 'port': 8000, 'maxthreads': None, 'softcron': False, 'server_name': 'nb-vest-dve', 'bpython': False, 'nogui': False, 'nocron': False, 'extcron': False, 'run_system_tests': False, 'test': None, 'folder': 'D:\\\\home\\\\dev\\\\python\\\\web2py', 'config': '', 'import_models': False, 'winservice': '', 'shell': None, 'run': '', 'log_filename': 'httpserver.log', 'debuglevel': 30, 'args': [''], 'socket_timeout': 5, 'ssl_ca_certificate': None, 'scheduler': None, 'profiler_filename': None, 'ssl_private_key': '', 'scheduler_groups': None, 'password': 'admissimo', 'request_queue_size': 5, 'ssl_certificate': '', 'cronjob': False, 'numthreads': None, 'quiet': False, 'interfaces': None, 'minthreads': None, 'timeout': 10, 'plain': False, 'nobanner': False, 'pid_filename': 'httpserver.pid'}>"
p1137
asbasbasbag54
(g70
g56
NtRp1138
(dp1139
g59
(dp1140
sg68
g1043
sg61
(lp1141
g54
(g75
g56
NtRp1142
(dp1143
g59
(dp1144
g79
g80
ssg68
g1138
sg61
(lp1145
S'content_length'
p1146
asbag54
(g75
g56
NtRp1147
(dp1148
g59
(dp1149
g86
g87
ssg68
g1138
sg61
(lp1150
S':'
asbag54
(g75
g56
NtRp1151
(dp1152
g59
(dp1153
sg68
g1138
sg61
(lp1154
g54
(g55
g56
NtRp1155
(dp1156
g59
(dp1157
g67
I4
ssg68
g1151
sg61
(lp1158
S'22'
p1159
asbasbasbag54
(g70
g56
NtRp1160
(dp1161
g59
(dp1162
sg68
g1043
sg61
(lp1163
g54
(g75
g56
NtRp1164
(dp1165
g59
(dp1166
g79
g80
ssg68
g1160
sg61
(lp1167
S'content_type'
p1168
asbag54
(g75
g56
NtRp1169
(dp1170
g59
(dp1171
g86
g87
ssg68
g1160
sg61
(lp1172
S':'
asbag54
(g75
g56
NtRp1173
(dp1174
g59
(dp1175
sg68
g1160
sg61
(lp1176
g54
(g55
g56
NtRp1177
(dp1178
g59
(dp1179
g67
I4
ssg68
g1173
sg61
(lp1180
S'application/x-www-form-urlencoded; charset=UTF-8'
p1181
asbasbasbag54
(g70
g56
NtRp1182
(dp1183
g59
(dp1184
sg68
g1043
sg61
(lp1185
g54
(g75
g56
NtRp1186
(dp1187
g59
(dp1188
g79
g80
ssg68
g1182
sg61
(lp1189
S'db_sessions'
p1190
asbag54
(g75
g56
NtRp1191
(dp1192
g59
(dp1193
g86
g87
ssg68
g1182
sg61
(lp1194
S':'
asbag54
(g75
g56
NtRp1195
(dp1196
g59
(dp1197
sg68
g1182
sg61
(lp1198
g54
(g55
g56
NtRp1199
(dp1200
g59
(dp1201
g67
I4
ssg68
g1195
sg61
(lp1202
S'set([])'
p1203
asbasbasbag54
(g70
g56
NtRp1204
(dp1205
g59
(dp1206
sg68
g1043
sg61
(lp1207
g54
(g75
g56
NtRp1208
(dp1209
g59
(dp1210
g79
g80
ssg68
g1204
sg61
(lp1211
S'debugging'
p1212
asbag54
(g75
g56
NtRp1213
(dp1214
g59
(dp1215
g86
g87
ssg68
g1204
sg61
(lp1216
S':'
asbag54
(g75
g56
NtRp1217
(dp1218
g59
(dp1219
sg68
g1204
sg61
(lp1220
g54
(g55
g56
NtRp1221
(dp1222
g59
(dp1223
g67
I4
ssg68
g1217
sg61
(lp1224
S'False'
p1225
asbasbasbag54
(g70
g56
NtRp1226
(dp1227
g59
(dp1228
sg68
g1043
sg61
(lp1229
g54
(g75
g56
NtRp1230
(dp1231
g59
(dp1232
g79
g80
ssg68
g1226
sg61
(lp1233
S'gluon_parent'
p1234
asbag54
(g75
g56
NtRp1235
(dp1236
g59
(dp1237
g86
g87
ssg68
g1226
sg61
(lp1238
S':'
asbag54
(g75
g56
NtRp1239
(dp1240
g59
(dp1241
sg68
g1226
sg61
(lp1242
g54
(g55
g56
NtRp1243
(dp1244
g59
(dp1245
g67
I4
ssg68
g1239
sg61
(lp1246
S'D:\\home\\dev\\python\\web2py'
p1247
asbasbasbag54
(g70
g56
NtRp1248
(dp1249
g59
(dp1250
sg68
g1043
sg61
(lp1251
g54
(g75
g56
NtRp1252
(dp1253
g59
(dp1254
g79
g80
ssg68
g1248
sg61
(lp1255
S'http_accept'
p1256
asbag54
(g75
g56
NtRp1257
(dp1258
g59
(dp1259
g86
g87
ssg68
g1248
sg61
(lp1260
S':'
asbag54
(g75
g56
NtRp1261
(dp1262
g59
(dp1263
sg68
g1248
sg61
(lp1264
g54
(g55
g56
NtRp1265
(dp1266
g59
(dp1267
g67
I4
ssg68
g1261
sg61
(lp1268
S'*/*'
p1269
asbasbasbag54
(g70
g56
NtRp1270
(dp1271
g59
(dp1272
sg68
g1043
sg61
(lp1273
g54
(g75
g56
NtRp1274
(dp1275
g59
(dp1276
g79
g80
ssg68
g1270
sg61
(lp1277
S'http_accept_encoding'
p1278
asbag54
(g75
g56
NtRp1279
(dp1280
g59
(dp1281
g86
g87
ssg68
g1270
sg61
(lp1282
S':'
asbag54
(g75
g56
NtRp1283
(dp1284
g59
(dp1285
sg68
g1270
sg61
(lp1286
g54
(g55
g56
NtRp1287
(dp1288
g59
(dp1289
g67
I4
ssg68
g1283
sg61
(lp1290
S'gzip, deflate'
p1291
asbasbasbag54
(g70
g56
NtRp1292
(dp1293
g59
(dp1294
sg68
g1043
sg61
(lp1295
g54
(g75
g56
NtRp1296
(dp1297
g59
(dp1298
g79
g80
ssg68
g1292
sg61
(lp1299
S'http_accept_language'
p1300
asbag54
(g75
g56
NtRp1301
(dp1302
g59
(dp1303
g86
g87
ssg68
g1292
sg61
(lp1304
S':'
asbag54
(g75
g56
NtRp1305
(dp1306
g59
(dp1307
sg68
g1292
sg61
(lp1308
g54
(g55
g56
NtRp1309
(dp1310
g59
(dp1311
g67
I4
ssg68
g1305
sg61
(lp1312
S'en-gb,en;q=0.7,nl;q=0.3'
p1313
asbasbasbag54
(g70
g56
NtRp1314
(dp1315
g59
(dp1316
sg68
g1043
sg61
(lp1317
g54
(g75
g56
NtRp1318
(dp1319
g59
(dp1320
g79
g80
ssg68
g1314
sg61
(lp1321
S'http_cache_control'
p1322
asbag54
(g75
g56
NtRp1323
(dp1324
g59
(dp1325
g86
g87
ssg68
g1314
sg61
(lp1326
S':'
asbag54
(g75
g56
NtRp1327
(dp1328
g59
(dp1329
sg68
g1314
sg61
(lp1330
g54
(g55
g56
NtRp1331
(dp1332
g59
(dp1333
g67
I4
ssg68
g1327
sg61
(lp1334
S'no-cache'
p1335
asbasbasbag54
(g70
g56
NtRp1336
(dp1337
g59
(dp1338
sg68
g1043
sg61
(lp1339
g54
(g75
g56
NtRp1340
(dp1341
g59
(dp1342
g79
g80
ssg68
g1336
sg61
(lp1343
S'http_connection'
p1344
asbag54
(g75
g56
NtRp1345
(dp1346
g59
(dp1347
g86
g87
ssg68
g1336
sg61
(lp1348
S':'
asbag54
(g75
g56
NtRp1349
(dp1350
g59
(dp1351
sg68
g1336
sg61
(lp1352
g54
(g55
g56
NtRp1353
(dp1354
g59
(dp1355
g67
I4
ssg68
g1349
sg61
(lp1356
S'keep-alive'
p1357
asbasbasbag54
(g70
g56
NtRp1358
(dp1359
g59
(dp1360
sg68
g1043
sg61
(lp1361
g54
(g75
g56
NtRp1362
(dp1363
g59
(dp1364
g79
g80
ssg68
g1358
sg61
(lp1365
S'http_content_length'
p1366
asbag54
(g75
g56
NtRp1367
(dp1368
g59
(dp1369
g86
g87
ssg68
g1358
sg61
(lp1370
S':'
asbag54
(g75
g56
NtRp1371
(dp1372
g59
(dp1373
sg68
g1358
sg61
(lp1374
g54
(g55
g56
NtRp1375
(dp1376
g59
(dp1377
g67
I4
ssg68
g1371
sg61
(lp1378
g1159
asbasbasbag54
(g70
g56
NtRp1379
(dp1380
g59
(dp1381
sg68
g1043
sg61
(lp1382
g54
(g75
g56
NtRp1383
(dp1384
g59
(dp1385
g79
g80
ssg68
g1379
sg61
(lp1386
S'http_content_type'
p1387
asbag54
(g75
g56
NtRp1388
(dp1389
g59
(dp1390
g86
g87
ssg68
g1379
sg61
(lp1391
S':'
asbag54
(g75
g56
NtRp1392
(dp1393
g59
(dp1394
sg68
g1379
sg61
(lp1395
g54
(g55
g56
NtRp1396
(dp1397
g59
(dp1398
g67
I4
ssg68
g1392
sg61
(lp1399
g1181
asbasbasbag54
(g70
g56
NtRp1400
(dp1401
g59
(dp1402
sg68
g1043
sg61
(lp1403
g54
(g75
g56
NtRp1404
(dp1405
g59
(dp1406
g79
g80
ssg68
g1400
sg61
(lp1407
S'http_cookie'
p1408
asbag54
(g75
g56
NtRp1409
(dp1410
g59
(dp1411
g86
g87
ssg68
g1400
sg61
(lp1412
S':'
asbag54
(g75
g56
NtRp1413
(dp1414
g59
(dp1415
sg68
g1400
sg61
(lp1416
g54
(g55
g56
NtRp1417
(dp1418
g59
(dp1419
g67
I4
ssg68
g1413
sg61
(lp1420
S'session_id_welcome=127.0.0.1-01815780-1d66-47f0-89af-f751a6da73c0; session_id_admin=127.0.0.1-a3cb7328-1114-4610-8fd0-fd9c96816f71; session_id_a_f_report_tool=127.0.0.1-f3936a9b-92d2-4b72-a5a5-4122d9517c3b; session_id_home=127.0.0.1-a6ef227c-6672-46ba-be75-c1a625f41610'
p1421
asbasbasbag54
(g70
g56
NtRp1422
(dp1423
g59
(dp1424
sg68
g1043
sg61
(lp1425
g54
(g75
g56
NtRp1426
(dp1427
g59
(dp1428
g79
g80
ssg68
g1422
sg61
(lp1429
S'http_dnt'
p1430
asbag54
(g75
g56
NtRp1431
(dp1432
g59
(dp1433
g86
g87
ssg68
g1422
sg61
(lp1434
S':'
asbag54
(g75
g56
NtRp1435
(dp1436
g59
(dp1437
sg68
g1422
sg61
(lp1438
g54
(g55
g56
NtRp1439
(dp1440
g59
(dp1441
g67
I4
ssg68
g1435
sg61
(lp1442
S'1'
asbasbasbag54
(g70
g56
NtRp1443
(dp1444
g59
(dp1445
sg68
g1043
sg61
(lp1446
g54
(g75
g56
NtRp1447
(dp1448
g59
(dp1449
g79
g80
ssg68
g1443
sg61
(lp1450
S'http_host'
p1451
asbag54
(g75
g56
NtRp1452
(dp1453
g59
(dp1454
g86
g87
ssg68
g1443
sg61
(lp1455
S':'
asbag54
(g75
g56
NtRp1456
(dp1457
g59
(dp1458
sg68
g1443
sg61
(lp1459
g54
(g55
g56
NtRp1460
(dp1461
g59
(dp1462
g67
I4
ssg68
g1456
sg61
(lp1463
S'127.0.0.1:8000'
p1464
asbasbasbag54
(g70
g56
NtRp1465
(dp1466
g59
(dp1467
sg68
g1043
sg61
(lp1468
g54
(g75
g56
NtRp1469
(dp1470
g59
(dp1471
g79
g80
ssg68
g1465
sg61
(lp1472
S'http_pragma'
p1473
asbag54
(g75
g56
NtRp1474
(dp1475
g59
(dp1476
g86
g87
ssg68
g1465
sg61
(lp1477
S':'
asbag54
(g75
g56
NtRp1478
(dp1479
g59
(dp1480
sg68
g1465
sg61
(lp1481
g54
(g55
g56
NtRp1482
(dp1483
g59
(dp1484
g67
I4
ssg68
g1478
sg61
(lp1485
S'no-cache'
p1486
asbasbasbag54
(g70
g56
NtRp1487
(dp1488
g59
(dp1489
sg68
g1043
sg61
(lp1490
g54
(g75
g56
NtRp1491
(dp1492
g59
(dp1493
g79
g80
ssg68
g1487
sg61
(lp1494
S'http_referer'
p1495
asbag54
(g75
g56
NtRp1496
(dp1497
g59
(dp1498
g86
g87
ssg68
g1487
sg61
(lp1499
S':'
asbag54
(g75
g56
NtRp1500
(dp1501
g59
(dp1502
sg68
g1487
sg61
(lp1503
g54
(g55
g56
NtRp1504
(dp1505
g59
(dp1506
g67
I4
ssg68
g1500
sg61
(lp1507
S'http://127.0.0.1:8000/admin/shell/index/home'
p1508
asbasbasbag54
(g70
g56
NtRp1509
(dp1510
g59
(dp1511
sg68
g1043
sg61
(lp1512
g54
(g75
g56
NtRp1513
(dp1514
g59
(dp1515
g79
g80
ssg68
g1509
sg61
(lp1516
S'http_user_agent'
p1517
asbag54
(g75
g56
NtRp1518
(dp1519
g59
(dp1520
g86
g87
ssg68
g1509
sg61
(lp1521
S':'
asbag54
(g75
g56
NtRp1522
(dp1523
g59
(dp1524
sg68
g1509
sg61
(lp1525
g54
(g55
g56
NtRp1526
(dp1527
g59
(dp1528
g67
I4
ssg68
g1522
sg61
(lp1529
S'Mozilla/5.0 (Windows NT 6.1; WOW64; rv:16.0) Gecko/20100101 Firefox/16.0'
p1530
asbasbasbag54
(g70
g56
NtRp1531
(dp1532
g59
(dp1533
sg68
g1043
sg61
(lp1534
g54
(g75
g56
NtRp1535
(dp1536
g59
(dp1537
g79
g80
ssg68
g1531
sg61
(lp1538
S'http_x_requested_with'
p1539
asbag54
(g75
g56
NtRp1540
(dp1541
g59
(dp1542
g86
g87
ssg68
g1531
sg61
(lp1543
S':'
asbag54
(g75
g56
NtRp1544
(dp1545
g59
(dp1546
sg68
g1531
sg61
(lp1547
g54
(g55
g56
NtRp1548
(dp1549
g59
(dp1550
g67
I4
ssg68
g1544
sg61
(lp1551
S'XMLHttpRequest'
p1552
asbasbasbag54
(g70
g56
NtRp1553
(dp1554
g59
(dp1555
sg68
g1043
sg61
(lp1556
g54
(g75
g56
NtRp1557
(dp1558
g59
(dp1559
g79
g80
ssg68
g1553
sg61
(lp1560
S'is_jython'
p1561
asbag54
(g75
g56
NtRp1562
(dp1563
g59
(dp1564
g86
g87
ssg68
g1553
sg61
(lp1565
S':'
asbag54
(g75
g56
NtRp1566
(dp1567
g59
(dp1568
sg68
g1553
sg61
(lp1569
g54
(g55
g56
NtRp1570
(dp1571
g59
(dp1572
g67
I4
ssg68
g1566
sg61
(lp1573
g1225
asbasbasbag54
(g70
g56
NtRp1574
(dp1575
g59
(dp1576
sg68
g1043
sg61
(lp1577
g54
(g75
g56
NtRp1578
(dp1579
g59
(dp1580
g79
g80
ssg68
g1574
sg61
(lp1581
S'is_pypy'
p1582
asbag54
(g75
g56
NtRp1583
(dp1584
g59
(dp1585
g86
g87
ssg68
g1574
sg61
(lp1586
S':'
asbag54
(g75
g56
NtRp1587
(dp1588
g59
(dp1589
sg68
g1574
sg61
(lp1590
g54
(g55
g56
NtRp1591
(dp1592
g59
(dp1593
g67
I4
ssg68
g1587
sg61
(lp1594
g1225
asbasbasbag54
(g70
g56
NtRp1595
(dp1596
g59
(dp1597
sg68
g1043
sg61
(lp1598
g54
(g75
g56
NtRp1599
(dp1600
g59
(dp1601
g79
g80
ssg68
g1595
sg61
(lp1602
S'path_info'
p1603
asbag54
(g75
g56
NtRp1604
(dp1605
g59
(dp1606
g86
g87
ssg68
g1595
sg61
(lp1607
S':'
asbag54
(g75
g56
NtRp1608
(dp1609
g59
(dp1610
sg68
g1595
sg61
(lp1611
g54
(g55
g56
NtRp1612
(dp1613
g59
(dp1614
g67
I4
ssg68
g1608
sg61
(lp1615
S'/admin/shell/callback/home'
p1616
asbasbasbag54
(g70
g56
NtRp1617
(dp1618
g59
(dp1619
sg68
g1043
sg61
(lp1620
g54
(g75
g56
NtRp1621
(dp1622
g59
(dp1623
g79
g80
ssg68
g1617
sg61
(lp1624
S'query_string'
p1625
asbag54
(g75
g56
NtRp1626
(dp1627
g59
(dp1628
g86
g87
ssg68
g1617
sg61
(lp1629
S':'
asbag54
(g75
g56
NtRp1630
(dp1631
g59
(dp1632
sg68
g1617
sg61
(lp1633
g54
(g55
g56
NtRp1634
(dp1635
g59
(dp1636
g67
I4
ssg68
g1630
sg61
(lp1637
S''
asbasbasbag54
(g70
g56
NtRp1638
(dp1639
g59
(dp1640
sg68
g1043
sg61
(lp1641
g54
(g75
g56
NtRp1642
(dp1643
g59
(dp1644
g79
g80
ssg68
g1638
sg61
(lp1645
S'remote_addr'
p1646
asbag54
(g75
g56
NtRp1647
(dp1648
g59
(dp1649
g86
g87
ssg68
g1638
sg61
(lp1650
S':'
asbag54
(g75
g56
NtRp1651
(dp1652
g59
(dp1653
sg68
g1638
sg61
(lp1654
g54
(g55
g56
NtRp1655
(dp1656
g59
(dp1657
g67
I4
ssg68
g1651
sg61
(lp1658
g222
asbasbasbag54
(g70
g56
NtRp1659
(dp1660
g59
(dp1661
sg68
g1043
sg61
(lp1662
g54
(g75
g56
NtRp1663
(dp1664
g59
(dp1665
g79
g80
ssg68
g1659
sg61
(lp1666
S'remote_port'
p1667
asbag54
(g75
g56
NtRp1668
(dp1669
g59
(dp1670
g86
g87
ssg68
g1659
sg61
(lp1671
S':'
asbag54
(g75
g56
NtRp1672
(dp1673
g59
(dp1674
sg68
g1659
sg61
(lp1675
g54
(g55
g56
NtRp1676
(dp1677
g59
(dp1678
g67
I4
ssg68
g1672
sg61
(lp1679
S'51134'
p1680
asbasbasbag54
(g70
g56
NtRp1681
(dp1682
g59
(dp1683
sg68
g1043
sg61
(lp1684
g54
(g75
g56
NtRp1685
(dp1686
g59
(dp1687
g79
g80
ssg68
g1681
sg61
(lp1688
S'request_method'
p1689
asbag54
(g75
g56
NtRp1690
(dp1691
g59
(dp1692
g86
g87
ssg68
g1681
sg61
(lp1693
S':'
asbag54
(g75
g56
NtRp1694
(dp1695
g59
(dp1696
sg68
g1681
sg61
(lp1697
g54
(g55
g56
NtRp1698
(dp1699
g59
(dp1700
g67
I4
ssg68
g1694
sg61
(lp1701
S'POST'
p1702
asbasbasbag54
(g70
g56
NtRp1703
(dp1704
g59
(dp1705
sg68
g1043
sg61
(lp1706
g54
(g75
g56
NtRp1707
(dp1708
g59
(dp1709
g79
g80
ssg68
g1703
sg61
(lp1710
S'request_uri'
p1711
asbag54
(g75
g56
NtRp1712
(dp1713
g59
(dp1714
g86
g87
ssg68
g1703
sg61
(lp1715
S':'
asbag54
(g75
g56
NtRp1716
(dp1717
g59
(dp1718
sg68
g1703
sg61
(lp1719
g54
(g55
g56
NtRp1720
(dp1721
g59
(dp1722
g67
I4
ssg68
g1716
sg61
(lp1723
g1616
asbasbasbag54
(g70
g56
NtRp1724
(dp1725
g59
(dp1726
sg68
g1043
sg61
(lp1727
g54
(g75
g56
NtRp1728
(dp1729
g59
(dp1730
g79
g80
ssg68
g1724
sg61
(lp1731
S'script_name'
p1732
asbag54
(g75
g56
NtRp1733
(dp1734
g59
(dp1735
g86
g87
ssg68
g1724
sg61
(lp1736
S':'
asbag54
(g75
g56
NtRp1737
(dp1738
g59
(dp1739
sg68
g1724
sg61
(lp1740
g54
(g55
g56
NtRp1741
(dp1742
g59
(dp1743
g67
I4
ssg68
g1737
sg61
(lp1744
S''
asbasbasbag54
(g70
g56
NtRp1745
(dp1746
g59
(dp1747
sg68
g1043
sg61
(lp1748
g54
(g75
g56
NtRp1749
(dp1750
g59
(dp1751
g79
g80
ssg68
g1745
sg61
(lp1752
S'server_name'
p1753
asbag54
(g75
g56
NtRp1754
(dp1755
g59
(dp1756
g86
g87
ssg68
g1745
sg61
(lp1757
S':'
asbag54
(g75
g56
NtRp1758
(dp1759
g59
(dp1760
sg68
g1745
sg61
(lp1761
g54
(g55
g56
NtRp1762
(dp1763
g59
(dp1764
g67
I4
ssg68
g1758
sg61
(lp1765
S'nb-vest-dve'
p1766
asbasbasbag54
(g70
g56
NtRp1767
(dp1768
g59
(dp1769
sg68
g1043
sg61
(lp1770
g54
(g75
g56
NtRp1771
(dp1772
g59
(dp1773
g79
g80
ssg68
g1767
sg61
(lp1774
S'server_port'
p1775
asbag54
(g75
g56
NtRp1776
(dp1777
g59
(dp1778
g86
g87
ssg68
g1767
sg61
(lp1779
S':'
asbag54
(g75
g56
NtRp1780
(dp1781
g59
(dp1782
sg68
g1767
sg61
(lp1783
g54
(g55
g56
NtRp1784
(dp1785
g59
(dp1786
g67
I4
ssg68
g1780
sg61
(lp1787
S'8000'
p1788
asbasbasbag54
(g70
g56
NtRp1789
(dp1790
g59
(dp1791
sg68
g1043
sg61
(lp1792
g54
(g75
g56
NtRp1793
(dp1794
g59
(dp1795
g79
g80
ssg68
g1789
sg61
(lp1796
S'server_protocol'
p1797
asbag54
(g75
g56
NtRp1798
(dp1799
g59
(dp1800
g86
g87
ssg68
g1789
sg61
(lp1801
S':'
asbag54
(g75
g56
NtRp1802
(dp1803
g59
(dp1804
sg68
g1789
sg61
(lp1805
g54
(g55
g56
NtRp1806
(dp1807
g59
(dp1808
g67
I4
ssg68
g1802
sg61
(lp1809
S'HTTP/1.1'
p1810
asbasbasbag54
(g70
g56
NtRp1811
(dp1812
g59
(dp1813
sg68
g1043
sg61
(lp1814
g54
(g75
g56
NtRp1815
(dp1816
g59
(dp1817
g79
g80
ssg68
g1811
sg61
(lp1818
S'server_software'
p1819
asbag54
(g75
g56
NtRp1820
(dp1821
g59
(dp1822
g86
g87
ssg68
g1811
sg61
(lp1823
S':'
asbag54
(g75
g56
NtRp1824
(dp1825
g59
(dp1826
sg68
g1811
sg61
(lp1827
g54
(g55
g56
NtRp1828
(dp1829
g59
(dp1830
g67
I4
ssg68
g1824
sg61
(lp1831
S'Rocket 1.2.4'
p1832
asbasbasbag54
(g70
g56
NtRp1833
(dp1834
g59
(dp1835
sg68
g1043
sg61
(lp1836
g54
(g75
g56
NtRp1837
(dp1838
g59
(dp1839
g79
g80
ssg68
g1833
sg61
(lp1840
S'web2py_crontype'
p1841
asbag54
(g75
g56
NtRp1842
(dp1843
g59
(dp1844
g86
g87
ssg68
g1833
sg61
(lp1845
S':'
asbag54
(g75
g56
NtRp1846
(dp1847
g59
(dp1848
sg68
g1833
sg61
(lp1849
g54
(g55
g56
NtRp1850
(dp1851
g59
(dp1852
g67
I4
ssg68
g1846
sg61
(lp1853
S'hard'
p1854
asbasbasbag54
(g70
g56
NtRp1855
(dp1856
g59
(dp1857
sg68
g1043
sg61
(lp1858
g54
(g75
g56
NtRp1859
(dp1860
g59
(dp1861
g79
g80
ssg68
g1855
sg61
(lp1862
S'web2py_path'
p1863
asbag54
(g75
g56
NtRp1864
(dp1865
g59
(dp1866
g86
g87
ssg68
g1855
sg61
(lp1867
S':'
asbag54
(g75
g56
NtRp1868
(dp1869
g59
(dp1870
sg68
g1855
sg61
(lp1871
g54
(g55
g56
NtRp1872
(dp1873
g59
(dp1874
g67
I4
ssg68
g1868
sg61
(lp1875
g1090
asbasbasbag54
(g70
g56
NtRp1876
(dp1877
g59
(dp1878
sg68
g1043
sg61
(lp1879
g54
(g75
g56
NtRp1880
(dp1881
g59
(dp1882
g79
g80
ssg68
g1876
sg61
(lp1883
S'web2py_version'
p1884
asbag54
(g75
g56
NtRp1885
(dp1886
g59
(dp1887
g86
g87
ssg68
g1876
sg61
(lp1888
S':'
asbag54
(g75
g56
NtRp1889
(dp1890
g59
(dp1891
sg68
g1876
sg61
(lp1892
g54
(g55
g56
NtRp1893
(dp1894
g59
(dp1895
g67
I4
ssg68
g1889
sg61
(lp1896
g54
(g63
g56
NtRp1897
(dp1898
g59
(dp1899
g67
I3
ssg68
Nsg61
(lp1900
g54
(g70
g56
NtRp1901
(dp1902
g59
(dp1903
sg68
g1897
sg61
(lp1904
g54
(g75
g56
NtRp1905
(dp1906
g59
(dp1907
sg68
g1901
sg61
(lp1908
g54
(g55
g56
NtRp1909
(dp1910
g59
(dp1911
g67
I3
ssg68
g1905
sg61
(lp1912
S'2'
asbasbasbag54
(g70
g56
NtRp1913
(dp1914
g59
(dp1915
sg68
g1897
sg61
(lp1916
g54
(g75
g56
NtRp1917
(dp1918
g59
(dp1919
sg68
g1913
sg61
(lp1920
g54
(g55
g56
NtRp1921
(dp1922
g59
(dp1923
g67
I3
ssg68
g1917
sg61
(lp1924
S'0'
asbasbasbag54
(g70
g56
NtRp1925
(dp1926
g59
(dp1927
sg68
g1897
sg61
(lp1928
g54
(g75
g56
NtRp1929
(dp1930
g59
(dp1931
sg68
g1925
sg61
(lp1932
g54
(g55
g56
NtRp1933
(dp1934
g59
(dp1935
g67
I3
ssg68
g1929
sg61
(lp1936
S'9'
asbasbasbag54
(g70
g56
NtRp1937
(dp1938
g59
(dp1939
sg68
g1897
sg61
(lp1940
g54
(g75
g56
NtRp1941
(dp1942
g59
(dp1943
sg68
g1937
sg61
(lp1944
g54
(g55
g56
NtRp1945
(dp1946
g59
(dp1947
g67
I3
ssg68
g1941
sg61
(lp1948
S'datetime.datetime(2012, 9, 13, 23, 51, 30)'
p1949
asbasbasbag54
(g70
g56
NtRp1950
(dp1951
g59
(dp1952
sg68
g1897
sg61
(lp1953
g54
(g75
g56
NtRp1954
(dp1955
g59
(dp1956
sg68
g1950
sg61
(lp1957
g54
(g55
g56
NtRp1958
(dp1959
g59
(dp1960
g67
I3
ssg68
g1954
sg61
(lp1961
S'stable'
p1962
asbasbasbasbasbasbasbag54
(g70
g56
NtRp1963
(dp1964
g59
(dp1965
sg68
g1043
sg61
(lp1966
g54
(g75
g56
NtRp1967
(dp1968
g59
(dp1969
g79
g80
ssg68
g1963
sg61
(lp1970
S'wsgi_errors'
p1971
asbag54
(g75
g56
NtRp1972
(dp1973
g59
(dp1974
g86
g87
ssg68
g1963
sg61
(lp1975
S':'
asbag54
(g75
g56
NtRp1976
(dp1977
g59
(dp1978
sg68
g1963
sg61
(lp1979
g54
(g55
g56
NtRp1980
(dp1981
g59
(dp1982
g67
I4
ssg68
g1976
sg61
(lp1983
S"<open file '<stderr>', mode 'w' at 0x01D750D0>"
p1984
asbasbasbag54
(g70
g56
NtRp1985
(dp1986
g59
(dp1987
sg68
g1043
sg61
(lp1988
g54
(g75
g56
NtRp1989
(dp1990
g59
(dp1991
g79
g80
ssg68
g1985
sg61
(lp1992
S'wsgi_file_wrapper'
p1993
asbag54
(g75
g56
NtRp1994
(dp1995
g59
(dp1996
g86
g87
ssg68
g1985
sg61
(lp1997
S':'
asbag54
(g75
g56
NtRp1998
(dp1999
g59
(dp2000
sg68
g1985
sg61
(lp2001
g54
(g55
g56
NtRp2002
(dp2003
g59
(dp2004
g67
I4
ssg68
g1998
sg61
(lp2005
S'<class wsgiref.util.FileWrapper at 0x034D0EA0>'
p2006
asbasbasbag54
(g70
g56
NtRp2007
(dp2008
g59
(dp2009
sg68
g1043
sg61
(lp2010
g54
(g75
g56
NtRp2011
(dp2012
g59
(dp2013
g79
g80
ssg68
g2007
sg61
(lp2014
S'wsgi_input'
p2015
asbag54
(g75
g56
NtRp2016
(dp2017
g59
(dp2018
g86
g87
ssg68
g2007
sg61
(lp2019
S':'
asbag54
(g75
g56
NtRp2020
(dp2021
g59
(dp2022
sg68
g2007
sg61
(lp2023
g54
(g55
g56
NtRp2024
(dp2025
g59
(dp2026
g67
I4
ssg68
g2020
sg61
(lp2027
S'<socket._fileobject object at 0x03EA0470>'
p2028
asbasbasbag54
(g70
g56
NtRp2029
(dp2030
g59
(dp2031
sg68
g1043
sg61
(lp2032
g54
(g75
g56
NtRp2033
(dp2034
g59
(dp2035
g79
g80
ssg68
g2029
sg61
(lp2036
S'wsgi_multiprocess'
p2037
asbag54
(g75
g56
NtRp2038
(dp2039
g59
(dp2040
g86
g87
ssg68
g2029
sg61
(lp2041
S':'
asbag54
(g75
g56
NtRp2042
(dp2043
g59
(dp2044
sg68
g2029
sg61
(lp2045
g54
(g55
g56
NtRp2046
(dp2047
g59
(dp2048
g67
I4
ssg68
g2042
sg61
(lp2049
g1225
asbasbasbag54
(g70
g56
NtRp2050
(dp2051
g59
(dp2052
sg68
g1043
sg61
(lp2053
g54
(g75
g56
NtRp2054
(dp2055
g59
(dp2056
g79
g80
ssg68
g2050
sg61
(lp2057
S'wsgi_multithread'
p2058
asbag54
(g75
g56
NtRp2059
(dp2060
g59
(dp2061
g86
g87
ssg68
g2050
sg61
(lp2062
S':'
asbag54
(g75
g56
NtRp2063
(dp2064
g59
(dp2065
sg68
g2050
sg61
(lp2066
g54
(g55
g56
NtRp2067
(dp2068
g59
(dp2069
g67
I4
ssg68
g2063
sg61
(lp2070
g97
asbasbasbag54
(g70
g56
NtRp2071
(dp2072
g59
(dp2073
sg68
g1043
sg61
(lp2074
g54
(g75
g56
NtRp2075
(dp2076
g59
(dp2077
g79
g80
ssg68
g2071
sg61
(lp2078
S'wsgi_run_once'
p2079
asbag54
(g75
g56
NtRp2080
(dp2081
g59
(dp2082
g86
g87
ssg68
g2071
sg61
(lp2083
S':'
asbag54
(g75
g56
NtRp2084
(dp2085
g59
(dp2086
sg68
g2071
sg61
(lp2087
g54
(g55
g56
NtRp2088
(dp2089
g59
(dp2090
g67
I4
ssg68
g2084
sg61
(lp2091
g1225
asbasbasbag54
(g70
g56
NtRp2092
(dp2093
g59
(dp2094
sg68
g1043
sg61
(lp2095
g54
(g75
g56
NtRp2096
(dp2097
g59
(dp2098
g79
g80
ssg68
g2092
sg61
(lp2099
S'wsgi_url_scheme'
p2100
asbag54
(g75
g56
NtRp2101
(dp2102
g59
(dp2103
g86
g87
ssg68
g2092
sg61
(lp2104
S':'
asbag54
(g75
g56
NtRp2105
(dp2106
g59
(dp2107
sg68
g2092
sg61
(lp2108
g54
(g55
g56
NtRp2109
(dp2110
g59
(dp2111
g67
I4
ssg68
g2105
sg61
(lp2112
S'http'
p2113
asbasbasbag54
(g70
g56
NtRp2114
(dp2115
g59
(dp2116
sg68
g1043
sg61
(lp2117
g54
(g75
g56
NtRp2118
(dp2119
g59
(dp2120
g79
g80
ssg68
g2114
sg61
(lp2121
S'wsgi_version'
p2122
asbag54
(g75
g56
NtRp2123
(dp2124
g59
(dp2125
g86
g87
ssg68
g2114
sg61
(lp2126
S':'
asbag54
(g75
g56
NtRp2127
(dp2128
g59
(dp2129
sg68
g2114
sg61
(lp2130
g54
(g55
g56
NtRp2131
(dp2132
g59
(dp2133
g67
I4
ssg68
g2127
sg61
(lp2134
g54
(g63
g56
NtRp2135
(dp2136
g59
(dp2137
g67
I3
ssg68
Nsg61
(lp2138
g54
(g70
g56
NtRp2139
(dp2140
g59
(dp2141
sg68
g2135
sg61
(lp2142
g54
(g75
g56
NtRp2143
(dp2144
g59
(dp2145
sg68
g2139
sg61
(lp2146
g54
(g55
g56
NtRp2147
(dp2148
g59
(dp2149
g67
I3
ssg68
g2143
sg61
(lp2150
S'1'
asbasbasbag54
(g70
g56
NtRp2151
(dp2152
g59
(dp2153
sg68
g2135
sg61
(lp2154
g54
(g75
g56
NtRp2155
(dp2156
g59
(dp2157
sg68
g2151
sg61
(lp2158
g54
(g55
g56
NtRp2159
(dp2160
g59
(dp2161
g67
I3
ssg68
g2155
sg61
(lp2162
S'0'
asbasbasbasbasbasbasbasbasbasbasbag54
(g70
g56
NtRp2163
(dp2164
g59
(dp2165
sg68
g64
sg61
(lp2166
g54
(g75
g56
NtRp2167
(dp2168
g59
(dp2169
g79
g80
ssg68
g2163
sg61
(lp2170
S'extension'
p2171
asbag54
(g75
g56
NtRp2172
(dp2173
g59
(dp2174
g86
g87
ssg68
g2163
sg61
(lp2175
S':'
asbag54
(g75
g56
NtRp2176
(dp2177
g59
(dp2178
sg68
g2163
sg61
(lp2179
g54
(g55
g56
NtRp2180
(dp2181
g59
(dp2182
g67
I5
ssg68
g2176
sg61
(lp2183
S'html'
p2184
asbasbasbag54
(g70
g56
NtRp2185
(dp2186
g59
(dp2187
sg68
g64
sg61
(lp2188
g54
(g75
g56
NtRp2189
(dp2190
g59
(dp2191
g79
g80
ssg68
g2185
sg61
(lp2192
S'folder'
p2193
asbag54
(g75
g56
NtRp2194
(dp2195
g59
(dp2196
g86
g87
ssg68
g2185
sg61
(lp2197
S':'
asbag54
(g75
g56
NtRp2198
(dp2199
g59
(dp2200
sg68
g2185
sg61
(lp2201
g54
(g55
g56
NtRp2202
(dp2203
g59
(dp2204
g67
I5
ssg68
g2198
sg61
(lp2205
S'D:\\home\\dev\\python\\web2py\\applications\\admin\\'
p2206
asbasbasbag54
(g70
g56
NtRp2207
(dp2208
g59
(dp2209
sg68
g64
sg61
(lp2210
g54
(g75
g56
NtRp2211
(dp2212
g59
(dp2213
g79
g80
ssg68
g2207
sg61
(lp2214
S'function'
p2215
asbag54
(g75
g56
NtRp2216
(dp2217
g59
(dp2218
g86
g87
ssg68
g2207
sg61
(lp2219
S':'
asbag54
(g75
g56
NtRp2220
(dp2221
g59
(dp2222
sg68
g2207
sg61
(lp2223
g54
(g55
g56
NtRp2224
(dp2225
g59
(dp2226
g67
I5
ssg68
g2220
sg61
(lp2227
S'callback'
p2228
asbasbasbag54
(g70
g56
NtRp2229
(dp2230
g59
(dp2231
sg68
g64
sg61
(lp2232
g54
(g75
g56
NtRp2233
(dp2234
g59
(dp2235
g79
g80
ssg68
g2229
sg61
(lp2236
S'get_vars'
p2237
asbag54
(g75
g56
NtRp2238
(dp2239
g59
(dp2240
g86
g87
ssg68
g2229
sg61
(lp2241
S':'
asbag54
(g75
g56
NtRp2242
(dp2243
g59
(dp2244
sg68
g2229
sg61
(lp2245
g54
(g55
g56
NtRp2246
(dp2247
g59
(dp2248
g67
I5
ssg68
g2242
sg61
(lp2249
g54
(g63
g56
NtRp2250
(dp2251
g59
(dp2252
g67
I4
ssg68
Nsg61
(lp2253
sbasbasbasbag54
(g70
g56
NtRp2254
(dp2255
g59
(dp2256
sg68
g64
sg61
(lp2257
g54
(g75
g56
NtRp2258
(dp2259
g59
(dp2260
g79
g80
ssg68
g2254
sg61
(lp2261
S'global_settings'
p2262
asbag54
(g75
g56
NtRp2263
(dp2264
g59
(dp2265
g86
g87
ssg68
g2254
sg61
(lp2266
S':'
asbag54
(g75
g56
NtRp2267
(dp2268
g59
(dp2269
sg68
g2254
sg61
(lp2270
g54
(g55
g56
NtRp2271
(dp2272
g59
(dp2273
g67
I5
ssg68
g2267
sg61
(lp2274
g54
(g63
g56
NtRp2275
(dp2276
g59
(dp2277
g67
I4
ssg68
Nsg61
(lp2278
g54
(g70
g56
NtRp2279
(dp2280
g59
(dp2281
sg68
g2275
sg61
(lp2282
g54
(g75
g56
NtRp2283
(dp2284
g59
(dp2285
g79
g80
ssg68
g2279
sg61
(lp2286
g1055
asbag54
(g75
g56
NtRp2287
(dp2288
g59
(dp2289
g86
g87
ssg68
g2279
sg61
(lp2290
S':'
asbag54
(g75
g56
NtRp2291
(dp2292
g59
(dp2293
sg68
g2279
sg61
(lp2294
g54
(g55
g56
NtRp2295
(dp2296
g59
(dp2297
g67
I4
ssg68
g2291
sg61
(lp2298
S"set(['D:\\\\home\\\\dev\\\\python\\\\web2py\\\\applications\\\\welcome\\\\', 'D:\\\\home\\\\dev\\\\python\\\\web2py\\\\applications\\\\admin\\\\', 'D:\\\\home\\\\dev\\\\python\\\\web2py\\\\applications\\\\A_F_Report_Tool\\\\', 'D:\\\\home\\\\dev\\\\python\\\\web2py\\\\applications\\\\home\\\\'])"
p2299
asbasbasbag54
(g70
g56
NtRp2300
(dp2301
g59
(dp2302
sg68
g2275
sg61
(lp2303
g54
(g75
g56
NtRp2304
(dp2305
g59
(dp2306
g79
g80
ssg68
g2300
sg61
(lp2307
g1077
asbag54
(g75
g56
NtRp2308
(dp2309
g59
(dp2310
g86
g87
ssg68
g2300
sg61
(lp2311
S':'
asbag54
(g75
g56
NtRp2312
(dp2313
g59
(dp2314
sg68
g2300
sg61
(lp2315
g54
(g55
g56
NtRp2316
(dp2317
g59
(dp2318
g67
I4
ssg68
g2312
sg61
(lp2319
g1090
asbasbasbag54
(g70
g56
NtRp2320
(dp2321
g59
(dp2322
sg68
g2275
sg61
(lp2323
g54
(g75
g56
NtRp2324
(dp2325
g59
(dp2326
g79
g80
ssg68
g2320
sg61
(lp2327
g1099
asbag54
(g75
g56
NtRp2328
(dp2329
g59
(dp2330
g86
g87
ssg68
g2320
sg61
(lp2331
S':'
asbag54
(g75
g56
NtRp2332
(dp2333
g59
(dp2334
sg68
g2320
sg61
(lp2335
g54
(g55
g56
NtRp2336
(dp2337
g59
(dp2338
g67
I4
ssg68
g2332
sg61
(lp2339
g54
(g63
g56
NtRp2340
(dp2341
g59
(dp2342
g67
I3
ssg68
Nsg61
(lp2343
sbasbasbasbag54
(g70
g56
NtRp2344
(dp2345
g59
(dp2346
sg68
g2275
sg61
(lp2347
g54
(g75
g56
NtRp2348
(dp2349
g59
(dp2350
g79
g80
ssg68
g2344
sg61
(lp2351
g1124
asbag54
(g75
g56
NtRp2352
(dp2353
g59
(dp2354
g86
g87
ssg68
g2344
sg61
(lp2355
S':'
asbag54
(g75
g56
NtRp2356
(dp2357
g59
(dp2358
sg68
g2344
sg61
(lp2359
g54
(g55
g56
NtRp2360
(dp2361
g59
(dp2362
g67
I4
ssg68
g2356
sg61
(lp2363
S"<Values at 0x3294d50: {'verbose': False, 'ip': '127.0.0.1', 'with_scheduler': False, 'ips': ['172.16.102.227', '192.168.1.93'], 'shutdown_timeout': 5, 'taskbar': False, 'port': 8000, 'maxthreads': None, 'softcron': False, 'server_name': 'nb-vest-dve', 'bpython': False, 'nogui': False, 'nocron': False, 'extcron': False, 'run_system_tests': False, 'test': None, 'folder': 'D:\\\\home\\\\dev\\\\python\\\\web2py', 'config': '', 'import_models': False, 'winservice': '', 'shell': None, 'run': '', 'log_filename': 'httpserver.log', 'debuglevel': 30, 'args': [''], 'socket_timeout': 5, 'ssl_ca_certificate': None, 'scheduler': None, 'profiler_filename': None, 'ssl_private_key': '', 'scheduler_groups': None, 'password': 'admissimo', 'request_queue_size': 5, 'ssl_certificate': '', 'cronjob': False, 'numthreads': None, 'quiet': False, 'interfaces': None, 'minthreads': None, 'timeout': 10, 'plain': False, 'nobanner': False, 'pid_filename': 'httpserver.pid'}>"
p2364
asbasbasbag54
(g70
g56
NtRp2365
(dp2366
g59
(dp2367
sg68
g2275
sg61
(lp2368
g54
(g75
g56
NtRp2369
(dp2370
g59
(dp2371
g79
g80
ssg68
g2365
sg61
(lp2372
g1190
asbag54
(g75
g56
NtRp2373
(dp2374
g59
(dp2375
g86
g87
ssg68
g2365
sg61
(lp2376
S':'
asbag54
(g75
g56
NtRp2377
(dp2378
g59
(dp2379
sg68
g2365
sg61
(lp2380
g54
(g55
g56
NtRp2381
(dp2382
g59
(dp2383
g67
I4
ssg68
g2377
sg61
(lp2384
S'set([])'
p2385
asbasbasbag54
(g70
g56
NtRp2386
(dp2387
g59
(dp2388
sg68
g2275
sg61
(lp2389
g54
(g75
g56
NtRp2390
(dp2391
g59
(dp2392
g79
g80
ssg68
g2386
sg61
(lp2393
g1212
asbag54
(g75
g56
NtRp2394
(dp2395
g59
(dp2396
g86
g87
ssg68
g2386
sg61
(lp2397
S':'
asbag54
(g75
g56
NtRp2398
(dp2399
g59
(dp2400
sg68
g2386
sg61
(lp2401
g54
(g55
g56
NtRp2402
(dp2403
g59
(dp2404
g67
I4
ssg68
g2398
sg61
(lp2405
g1225
asbasbasbag54
(g70
g56
NtRp2406
(dp2407
g59
(dp2408
sg68
g2275
sg61
(lp2409
g54
(g75
g56
NtRp2410
(dp2411
g59
(dp2412
g79
g80
ssg68
g2406
sg61
(lp2413
g1234
asbag54
(g75
g56
NtRp2414
(dp2415
g59
(dp2416
g86
g87
ssg68
g2406
sg61
(lp2417
S':'
asbag54
(g75
g56
NtRp2418
(dp2419
g59
(dp2420
sg68
g2406
sg61
(lp2421
g54
(g55
g56
NtRp2422
(dp2423
g59
(dp2424
g67
I4
ssg68
g2418
sg61
(lp2425
g1247
asbasbasbag54
(g70
g56
NtRp2426
(dp2427
g59
(dp2428
sg68
g2275
sg61
(lp2429
g54
(g75
g56
NtRp2430
(dp2431
g59
(dp2432
g79
g80
ssg68
g2426
sg61
(lp2433
g1561
asbag54
(g75
g56
NtRp2434
(dp2435
g59
(dp2436
g86
g87
ssg68
g2426
sg61
(lp2437
S':'
asbag54
(g75
g56
NtRp2438
(dp2439
g59
(dp2440
sg68
g2426
sg61
(lp2441
g54
(g55
g56
NtRp2442
(dp2443
g59
(dp2444
g67
I4
ssg68
g2438
sg61
(lp2445
g1225
asbasbasbag54
(g70
g56
NtRp2446
(dp2447
g59
(dp2448
sg68
g2275
sg61
(lp2449
g54
(g75
g56
NtRp2450
(dp2451
g59
(dp2452
g79
g80
ssg68
g2446
sg61
(lp2453
g1582
asbag54
(g75
g56
NtRp2454
(dp2455
g59
(dp2456
g86
g87
ssg68
g2446
sg61
(lp2457
S':'
asbag54
(g75
g56
NtRp2458
(dp2459
g59
(dp2460
sg68
g2446
sg61
(lp2461
g54
(g55
g56
NtRp2462
(dp2463
g59
(dp2464
g67
I4
ssg68
g2458
sg61
(lp2465
g1225
asbasbasbag54
(g70
g56
NtRp2466
(dp2467
g59
(dp2468
sg68
g2275
sg61
(lp2469
g54
(g75
g56
NtRp2470
(dp2471
g59
(dp2472
g79
g80
ssg68
g2466
sg61
(lp2473
g1841
asbag54
(g75
g56
NtRp2474
(dp2475
g59
(dp2476
g86
g87
ssg68
g2466
sg61
(lp2477
S':'
asbag54
(g75
g56
NtRp2478
(dp2479
g59
(dp2480
sg68
g2466
sg61
(lp2481
g54
(g55
g56
NtRp2482
(dp2483
g59
(dp2484
g67
I4
ssg68
g2478
sg61
(lp2485
g1854
asbasbasbag54
(g70
g56
NtRp2486
(dp2487
g59
(dp2488
sg68
g2275
sg61
(lp2489
g54
(g75
g56
NtRp2490
(dp2491
g59
(dp2492
g79
g80
ssg68
g2486
sg61
(lp2493
g1884
asbag54
(g75
g56
NtRp2494
(dp2495
g59
(dp2496
g86
g87
ssg68
g2486
sg61
(lp2497
S':'
asbag54
(g75
g56
NtRp2498
(dp2499
g59
(dp2500
sg68
g2486
sg61
(lp2501
g54
(g55
g56
NtRp2502
(dp2503
g59
(dp2504
g67
I4
ssg68
g2498
sg61
(lp2505
g54
(g63
g56
NtRp2506
(dp2507
g59
(dp2508
g67
I3
ssg68
Nsg61
(lp2509
g54
(g70
g56
NtRp2510
(dp2511
g59
(dp2512
sg68
g2506
sg61
(lp2513
g54
(g75
g56
NtRp2514
(dp2515
g59
(dp2516
sg68
g2510
sg61
(lp2517
g54
(g55
g56
NtRp2518
(dp2519
g59
(dp2520
g67
I3
ssg68
g2514
sg61
(lp2521
S'2'
asbasbasbag54
(g70
g56
NtRp2522
(dp2523
g59
(dp2524
sg68
g2506
sg61
(lp2525
g54
(g75
g56
NtRp2526
(dp2527
g59
(dp2528
sg68
g2522
sg61
(lp2529
g54
(g55
g56
NtRp2530
(dp2531
g59
(dp2532
g67
I3
ssg68
g2526
sg61
(lp2533
S'0'
asbasbasbag54
(g70
g56
NtRp2534
(dp2535
g59
(dp2536
sg68
g2506
sg61
(lp2537
g54
(g75
g56
NtRp2538
(dp2539
g59
(dp2540
sg68
g2534
sg61
(lp2541
g54
(g55
g56
NtRp2542
(dp2543
g59
(dp2544
g67
I3
ssg68
g2538
sg61
(lp2545
S'9'
asbasbasbag54
(g70
g56
NtRp2546
(dp2547
g59
(dp2548
sg68
g2506
sg61
(lp2549
g54
(g75
g56
NtRp2550
(dp2551
g59
(dp2552
sg68
g2546
sg61
(lp2553
g54
(g55
g56
NtRp2554
(dp2555
g59
(dp2556
g67
I3
ssg68
g2550
sg61
(lp2557
S'datetime.datetime(2012, 9, 13, 23, 51, 30)'
p2558
asbasbasbag54
(g70
g56
NtRp2559
(dp2560
g59
(dp2561
sg68
g2506
sg61
(lp2562
g54
(g75
g56
NtRp2563
(dp2564
g59
(dp2565
sg68
g2559
sg61
(lp2566
g54
(g55
g56
NtRp2567
(dp2568
g59
(dp2569
g67
I3
ssg68
g2563
sg61
(lp2570
g1962
asbasbasbasbasbasbasbasbasbasbasbag54
(g70
g56
NtRp2571
(dp2572
g59
(dp2573
sg68
g64
sg61
(lp2574
g54
(g75
g56
NtRp2575
(dp2576
g59
(dp2577
g79
g80
ssg68
g2571
sg61
(lp2578
S'is_https'
p2579
asbag54
(g75
g56
NtRp2580
(dp2581
g59
(dp2582
g86
g87
ssg68
g2571
sg61
(lp2583
S':'
asbag54
(g75
g56
NtRp2584
(dp2585
g59
(dp2586
sg68
g2571
sg61
(lp2587
g54
(g55
g56
NtRp2588
(dp2589
g59
(dp2590
g67
I5
ssg68
g2584
sg61
(lp2591
g1225
asbasbasbag54
(g70
g56
NtRp2592
(dp2593
g59
(dp2594
sg68
g64
sg61
(lp2595
g54
(g75
g56
NtRp2596
(dp2597
g59
(dp2598
g79
g80
ssg68
g2592
sg61
(lp2599
S'is_local'
p2600
asbag54
(g75
g56
NtRp2601
(dp2602
g59
(dp2603
g86
g87
ssg68
g2592
sg61
(lp2604
S':'
asbag54
(g75
g56
NtRp2605
(dp2606
g59
(dp2607
sg68
g2592
sg61
(lp2608
g54
(g55
g56
NtRp2609
(dp2610
g59
(dp2611
g67
I5
ssg68
g2605
sg61
(lp2612
g97
asbasbasbag54
(g70
g56
NtRp2613
(dp2614
g59
(dp2615
sg68
g64
sg61
(lp2616
g54
(g75
g56
NtRp2617
(dp2618
g59
(dp2619
g79
g80
ssg68
g2613
sg61
(lp2620
S'is_restful'
p2621
asbag54
(g75
g56
NtRp2622
(dp2623
g59
(dp2624
g86
g87
ssg68
g2613
sg61
(lp2625
S':'
asbag54
(g75
g56
NtRp2626
(dp2627
g59
(dp2628
sg68
g2613
sg61
(lp2629
g54
(g55
g56
NtRp2630
(dp2631
g59
(dp2632
g67
I5
ssg68
g2626
sg61
(lp2633
g1225
asbasbasbag54
(g70
g56
NtRp2634
(dp2635
g59
(dp2636
sg68
g64
sg61
(lp2637
g54
(g75
g56
NtRp2638
(dp2639
g59
(dp2640
g79
g80
ssg68
g2634
sg61
(lp2641
S'now'
p2642
asbag54
(g75
g56
NtRp2643
(dp2644
g59
(dp2645
g86
g87
ssg68
g2634
sg61
(lp2646
S':'
asbag54
(g75
g56
NtRp2647
(dp2648
g59
(dp2649
sg68
g2634
sg61
(lp2650
g54
(g55
g56
NtRp2651
(dp2652
g59
(dp2653
g67
I5
ssg68
g2647
sg61
(lp2654
S'datetime.datetime(2012, 10, 12, 11, 39, 13, 871000)'
p2655
asbasbasbag54
(g70
g56
NtRp2656
(dp2657
g59
(dp2658
sg68
g64
sg61
(lp2659
g54
(g75
g56
NtRp2660
(dp2661
g59
(dp2662
g79
g80
ssg68
g2656
sg61
(lp2663
S'post_vars'
p2664
asbag54
(g75
g56
NtRp2665
(dp2666
g59
(dp2667
g86
g87
ssg68
g2656
sg61
(lp2668
S':'
asbag54
(g75
g56
NtRp2669
(dp2670
g59
(dp2671
sg68
g2656
sg61
(lp2672
g54
(g55
g56
NtRp2673
(dp2674
g59
(dp2675
g67
I5
ssg68
g2669
sg61
(lp2676
g54
(g63
g56
NtRp2677
(dp2678
g59
(dp2679
g67
I4
ssg68
Nsg61
(lp2680
g54
(g70
g56
NtRp2681
(dp2682
g59
(dp2683
sg68
g2677
sg61
(lp2684
g54
(g75
g56
NtRp2685
(dp2686
g59
(dp2687
g79
g80
ssg68
g2681
sg61
(lp2688
S'statement'
p2689
asbag54
(g75
g56
NtRp2690
(dp2691
g59
(dp2692
g86
g87
ssg68
g2681
sg61
(lp2693
S':'
asbag54
(g75
g56
NtRp2694
(dp2695
g59
(dp2696
sg68
g2681
sg61
(lp2697
g54
(g55
g56
NtRp2698
(dp2699
g59
(dp2700
g67
I4
ssg68
g2694
sg61
(lp2701
S'print hai\n'
p2702
asbasbasbasbasbasbasbag54
(g70
g56
NtRp2703
(dp2704
g59
(dp2705
sg68
g64
sg61
(lp2706
g54
(g75
g56
NtRp2707
(dp2708
g59
(dp2709
g79
g80
ssg68
g2703
sg61
(lp2710
S'raw_args'
p2711
asbag54
(g75
g56
NtRp2712
(dp2713
g59
(dp2714
g86
g87
ssg68
g2703
sg61
(lp2715
S':'
asbag54
(g75
g56
NtRp2716
(dp2717
g59
(dp2718
sg68
g2703
sg61
(lp2719
g54
(g55
g56
NtRp2720
(dp2721
g59
(dp2722
g67
I5
ssg68
g2716
sg61
(lp2723
g156
asbasbasbag54
(g70
g56
NtRp2724
(dp2725
g59
(dp2726
sg68
g64
sg61
(lp2727
g54
(g75
g56
NtRp2728
(dp2729
g59
(dp2730
g79
g80
ssg68
g2724
sg61
(lp2731
S'raw_extension'
p2732
asbag54
(g75
g56
NtRp2733
(dp2734
g59
(dp2735
g86
g87
ssg68
g2724
sg61
(lp2736
S':'
asbag54
(g75
g56
NtRp2737
(dp2738
g59
(dp2739
sg68
g2724
sg61
(lp2740
g54
(g55
g56
NtRp2741
(dp2742
g59
(dp2743
g67
I5
ssg68
g2737
sg61
(lp2744
S'None'
p2745
asbasbasbag54
(g70
g56
NtRp2746
(dp2747
g59
(dp2748
sg68
g64
sg61
(lp2749
g54
(g75
g56
NtRp2750
(dp2751
g59
(dp2752
g79
g80
ssg68
g2746
sg61
(lp2753
S'url'
p2754
asbag54
(g75
g56
NtRp2755
(dp2756
g59
(dp2757
g86
g87
ssg68
g2746
sg61
(lp2758
S':'
asbag54
(g75
g56
NtRp2759
(dp2760
g59
(dp2761
sg68
g2746
sg61
(lp2762
g54
(g55
g56
NtRp2763
(dp2764
g59
(dp2765
g67
I5
ssg68
g2759
sg61
(lp2766
g1616
asbasbasbag54
(g70
g56
NtRp2767
(dp2768
g59
(dp2769
sg68
g64
sg61
(lp2770
g54
(g75
g56
NtRp2771
(dp2772
g59
(dp2773
g79
g80
ssg68
g2767
sg61
(lp2774
S'utcnow'
p2775
asbag54
(g75
g56
NtRp2776
(dp2777
g59
(dp2778
g86
g87
ssg68
g2767
sg61
(lp2779
S':'
asbag54
(g75
g56
NtRp2780
(dp2781
g59
(dp2782
sg68
g2767
sg61
(lp2783
g54
(g55
g56
NtRp2784
(dp2785
g59
(dp2786
g67
I5
ssg68
g2780
sg61
(lp2787
S'datetime.datetime(2012, 10, 12, 9, 39, 13, 871000)'
p2788
asbasbasbag54
(g70
g56
NtRp2789
(dp2790
g59
(dp2791
sg68
g64
sg61
(lp2792
g54
(g75
g56
NtRp2793
(dp2794
g59
(dp2795
g79
g80
ssg68
g2789
sg61
(lp2796
S'uuid'
p2797
asbag54
(g75
g56
NtRp2798
(dp2799
g59
(dp2800
g86
g87
ssg68
g2789
sg61
(lp2801
S':'
asbag54
(g75
g56
NtRp2802
(dp2803
g59
(dp2804
sg68
g2789
sg61
(lp2805
g54
(g55
g56
NtRp2806
(dp2807
g59
(dp2808
g67
I5
ssg68
g2802
sg61
(lp2809
S'admin/127.0.0.1.2012-10-12.11-39-13.e84f6404-5fe9-492f-82ec-3d86dc930a30'
p2810
asbasbasbag54
(g70
g56
NtRp2811
(dp2812
g59
(dp2813
sg68
g64
sg61
(lp2814
g54
(g75
g56
NtRp2815
(dp2816
g59
(dp2817
g79
g80
ssg68
g2811
sg61
(lp2818
S'vars'
p2819
asbag54
(g75
g56
NtRp2820
(dp2821
g59
(dp2822
g86
g87
ssg68
g2811
sg61
(lp2823
S':'
asbag54
(g75
g56
NtRp2824
(dp2825
g59
(dp2826
sg68
g2811
sg61
(lp2827
g54
(g55
g56
NtRp2828
(dp2829
g59
(dp2830
g67
I5
ssg68
g2824
sg61
(lp2831
g54
(g63
g56
NtRp2832
(dp2833
g59
(dp2834
g67
I4
ssg68
Nsg61
(lp2835
g54
(g70
g56
NtRp2836
(dp2837
g59
(dp2838
sg68
g2832
sg61
(lp2839
g54
(g75
g56
NtRp2840
(dp2841
g59
(dp2842
g79
g80
ssg68
g2836
sg61
(lp2843
g2689
asbag54
(g75
g56
NtRp2844
(dp2845
g59
(dp2846
g86
g87
ssg68
g2836
sg61
(lp2847
S':'
asbag54
(g75
g56
NtRp2848
(dp2849
g59
(dp2850
sg68
g2836
sg61
(lp2851
g54
(g55
g56
NtRp2852
(dp2853
g59
(dp2854
g67
I4
ssg68
g2848
sg61
(lp2855
g2702
asbasbasbasbasbasbasbag54
(g70
g56
NtRp2856
(dp2857
g59
(dp2858
sg68
g64
sg61
(lp2859
g54
(g75
g56
NtRp2860
(dp2861
g59
(dp2862
g79
g80
ssg68
g2856
sg61
(lp2863
S'wsgi'
p2864
asbag54
(g75
g56
NtRp2865
(dp2866
g59
(dp2867
g86
g87
ssg68
g2856
sg61
(lp2868
S':'
asbag54
(g75
g56
NtRp2869
(dp2870
g59
(dp2871
sg68
g2856
sg61
(lp2872
g54
(g55
g56
NtRp2873
(dp2874
g59
(dp2875
g67
I5
ssg68
g2869
sg61
(lp2876
g54
(g63
g56
NtRp2877
(dp2878
g59
(dp2879
g67
I4
ssg68
Nsg61
(lp2880
g54
(g70
g56
NtRp2881
(dp2882
g59
(dp2883
sg68
g2877
sg61
(lp2884
g54
(g75
g56
NtRp2885
(dp2886
g59
(dp2887
g79
g80
ssg68
g2881
sg61
(lp2888
S'environ'
p2889
asbag54
(g75
g56
NtRp2890
(dp2891
g59
(dp2892
g86
g87
ssg68
g2881
sg61
(lp2893
S':'
asbag54
(g75
g56
NtRp2894
(dp2895
g59
(dp2896
sg68
g2881
sg61
(lp2897
g54
(g55
g56
NtRp2898
(dp2899
g59
(dp2900
g67
I4
ssg68
g2894
sg61
(lp2901
g54
(g63
g56
NtRp2902
(dp2903
g59
(dp2904
g67
I3
ssg68
Nsg61
(lp2905
g54
(g70
g56
NtRp2906
(dp2907
g59
(dp2908
sg68
g2902
sg61
(lp2909
g54
(g75
g56
NtRp2910
(dp2911
g59
(dp2912
g79
g80
ssg68
g2906
sg61
(lp2913
S'CONTENT_LENGTH'
p2914
asbag54
(g75
g56
NtRp2915
(dp2916
g59
(dp2917
g86
g87
ssg68
g2906
sg61
(lp2918
S':'
asbag54
(g75
g56
NtRp2919
(dp2920
g59
(dp2921
sg68
g2906
sg61
(lp2922
g54
(g55
g56
NtRp2923
(dp2924
g59
(dp2925
g67
I3
ssg68
g2919
sg61
(lp2926
g1159
asbasbasbag54
(g70
g56
NtRp2927
(dp2928
g59
(dp2929
sg68
g2902
sg61
(lp2930
g54
(g75
g56
NtRp2931
(dp2932
g59
(dp2933
g79
g80
ssg68
g2927
sg61
(lp2934
S'CONTENT_TYPE'
p2935
asbag54
(g75
g56
NtRp2936
(dp2937
g59
(dp2938
g86
g87
ssg68
g2927
sg61
(lp2939
S':'
asbag54
(g75
g56
NtRp2940
(dp2941
g59
(dp2942
sg68
g2927
sg61
(lp2943
g54
(g55
g56
NtRp2944
(dp2945
g59
(dp2946
g67
I3
ssg68
g2940
sg61
(lp2947
g1181
asbasbasbag54
(g70
g56
NtRp2948
(dp2949
g59
(dp2950
sg68
g2902
sg61
(lp2951
g54
(g75
g56
NtRp2952
(dp2953
g59
(dp2954
g79
g80
ssg68
g2948
sg61
(lp2955
S'HTTP_ACCEPT'
p2956
asbag54
(g75
g56
NtRp2957
(dp2958
g59
(dp2959
g86
g87
ssg68
g2948
sg61
(lp2960
S':'
asbag54
(g75
g56
NtRp2961
(dp2962
g59
(dp2963
sg68
g2948
sg61
(lp2964
g54
(g55
g56
NtRp2965
(dp2966
g59
(dp2967
g67
I3
ssg68
g2961
sg61
(lp2968
g1269
asbasbasbag54
(g70
g56
NtRp2969
(dp2970
g59
(dp2971
sg68
g2902
sg61
(lp2972
g54
(g75
g56
NtRp2973
(dp2974
g59
(dp2975
g79
g80
ssg68
g2969
sg61
(lp2976
S'HTTP_ACCEPT_ENCODING'
p2977
asbag54
(g75
g56
NtRp2978
(dp2979
g59
(dp2980
g86
g87
ssg68
g2969
sg61
(lp2981
S':'
asbag54
(g75
g56
NtRp2982
(dp2983
g59
(dp2984
sg68
g2969
sg61
(lp2985
g54
(g55
g56
NtRp2986
(dp2987
g59
(dp2988
g67
I3
ssg68
g2982
sg61
(lp2989
g1291
asbasbasbag54
(g70
g56
NtRp2990
(dp2991
g59
(dp2992
sg68
g2902
sg61
(lp2993
g54
(g75
g56
NtRp2994
(dp2995
g59
(dp2996
g79
g80
ssg68
g2990
sg61
(lp2997
S'HTTP_ACCEPT_LANGUAGE'
p2998
asbag54
(g75
g56
NtRp2999
(dp3000
g59
(dp3001
g86
g87
ssg68
g2990
sg61
(lp3002
S':'
asbag54
(g75
g56
NtRp3003
(dp3004
g59
(dp3005
sg68
g2990
sg61
(lp3006
g54
(g55
g56
NtRp3007
(dp3008
g59
(dp3009
g67
I3
ssg68
g3003
sg61
(lp3010
g1313
asbasbasbag54
(g70
g56
NtRp3011
(dp3012
g59
(dp3013
sg68
g2902
sg61
(lp3014
g54
(g75
g56
NtRp3015
(dp3016
g59
(dp3017
g79
g80
ssg68
g3011
sg61
(lp3018
S'HTTP_CACHE_CONTROL'
p3019
asbag54
(g75
g56
NtRp3020
(dp3021
g59
(dp3022
g86
g87
ssg68
g3011
sg61
(lp3023
S':'
asbag54
(g75
g56
NtRp3024
(dp3025
g59
(dp3026
sg68
g3011
sg61
(lp3027
g54
(g55
g56
NtRp3028
(dp3029
g59
(dp3030
g67
I3
ssg68
g3024
sg61
(lp3031
g1335
asbasbasbag54
(g70
g56
NtRp3032
(dp3033
g59
(dp3034
sg68
g2902
sg61
(lp3035
g54
(g75
g56
NtRp3036
(dp3037
g59
(dp3038
g79
g80
ssg68
g3032
sg61
(lp3039
S'HTTP_CONNECTION'
p3040
asbag54
(g75
g56
NtRp3041
(dp3042
g59
(dp3043
g86
g87
ssg68
g3032
sg61
(lp3044
S':'
asbag54
(g75
g56
NtRp3045
(dp3046
g59
(dp3047
sg68
g3032
sg61
(lp3048
g54
(g55
g56
NtRp3049
(dp3050
g59
(dp3051
g67
I3
ssg68
g3045
sg61
(lp3052
g1357
asbasbasbag54
(g70
g56
NtRp3053
(dp3054
g59
(dp3055
sg68
g2902
sg61
(lp3056
g54
(g75
g56
NtRp3057
(dp3058
g59
(dp3059
g79
g80
ssg68
g3053
sg61
(lp3060
S'HTTP_CONTENT_LENGTH'
p3061
asbag54
(g75
g56
NtRp3062
(dp3063
g59
(dp3064
g86
g87
ssg68
g3053
sg61
(lp3065
S':'
asbag54
(g75
g56
NtRp3066
(dp3067
g59
(dp3068
sg68
g3053
sg61
(lp3069
g54
(g55
g56
NtRp3070
(dp3071
g59
(dp3072
g67
I3
ssg68
g3066
sg61
(lp3073
g1159
asbasbasbag54
(g70
g56
NtRp3074
(dp3075
g59
(dp3076
sg68
g2902
sg61
(lp3077
g54
(g75
g56
NtRp3078
(dp3079
g59
(dp3080
g79
g80
ssg68
g3074
sg61
(lp3081
S'HTTP_CONTENT_TYPE'
p3082
asbag54
(g75
g56
NtRp3083
(dp3084
g59
(dp3085
g86
g87
ssg68
g3074
sg61
(lp3086
S':'
asbag54
(g75
g56
NtRp3087
(dp3088
g59
(dp3089
sg68
g3074
sg61
(lp3090
g54
(g55
g56
NtRp3091
(dp3092
g59
(dp3093
g67
I3
ssg68
g3087
sg61
(lp3094
g1181
asbasbasbag54
(g70
g56
NtRp3095
(dp3096
g59
(dp3097
sg68
g2902
sg61
(lp3098
g54
(g75
g56
NtRp3099
(dp3100
g59
(dp3101
g79
g80
ssg68
g3095
sg61
(lp3102
S'HTTP_COOKIE'
p3103
asbag54
(g75
g56
NtRp3104
(dp3105
g59
(dp3106
g86
g87
ssg68
g3095
sg61
(lp3107
S':'
asbag54
(g75
g56
NtRp3108
(dp3109
g59
(dp3110
sg68
g3095
sg61
(lp3111
g54
(g55
g56
NtRp3112
(dp3113
g59
(dp3114
g67
I3
ssg68
g3108
sg61
(lp3115
g1421
asbasbasbag54
(g70
g56
NtRp3116
(dp3117
g59
(dp3118
sg68
g2902
sg61
(lp3119
g54
(g75
g56
NtRp3120
(dp3121
g59
(dp3122
g79
g80
ssg68
g3116
sg61
(lp3123
S'HTTP_DNT'
p3124
asbag54
(g75
g56
NtRp3125
(dp3126
g59
(dp3127
g86
g87
ssg68
g3116
sg61
(lp3128
S':'
asbag54
(g75
g56
NtRp3129
(dp3130
g59
(dp3131
sg68
g3116
sg61
(lp3132
g54
(g55
g56
NtRp3133
(dp3134
g59
(dp3135
g67
I3
ssg68
g3129
sg61
(lp3136
S'1'
asbasbasbag54
(g70
g56
NtRp3137
(dp3138
g59
(dp3139
sg68
g2902
sg61
(lp3140
g54
(g75
g56
NtRp3141
(dp3142
g59
(dp3143
g79
g80
ssg68
g3137
sg61
(lp3144
S'HTTP_HOST'
p3145
asbag54
(g75
g56
NtRp3146
(dp3147
g59
(dp3148
g86
g87
ssg68
g3137
sg61
(lp3149
S':'
asbag54
(g75
g56
NtRp3150
(dp3151
g59
(dp3152
sg68
g3137
sg61
(lp3153
g54
(g55
g56
NtRp3154
(dp3155
g59
(dp3156
g67
I3
ssg68
g3150
sg61
(lp3157
g1464
asbasbasbag54
(g70
g56
NtRp3158
(dp3159
g59
(dp3160
sg68
g2902
sg61
(lp3161
g54
(g75
g56
NtRp3162
(dp3163
g59
(dp3164
g79
g80
ssg68
g3158
sg61
(lp3165
S'HTTP_PRAGMA'
p3166
asbag54
(g75
g56
NtRp3167
(dp3168
g59
(dp3169
g86
g87
ssg68
g3158
sg61
(lp3170
S':'
asbag54
(g75
g56
NtRp3171
(dp3172
g59
(dp3173
sg68
g3158
sg61
(lp3174
g54
(g55
g56
NtRp3175
(dp3176
g59
(dp3177
g67
I3
ssg68
g3171
sg61
(lp3178
g1486
asbasbasbag54
(g70
g56
NtRp3179
(dp3180
g59
(dp3181
sg68
g2902
sg61
(lp3182
g54
(g75
g56
NtRp3183
(dp3184
g59
(dp3185
g79
g80
ssg68
g3179
sg61
(lp3186
S'HTTP_REFERER'
p3187
asbag54
(g75
g56
NtRp3188
(dp3189
g59
(dp3190
g86
g87
ssg68
g3179
sg61
(lp3191
S':'
asbag54
(g75
g56
NtRp3192
(dp3193
g59
(dp3194
sg68
g3179
sg61
(lp3195
g54
(g55
g56
NtRp3196
(dp3197
g59
(dp3198
g67
I3
ssg68
g3192
sg61
(lp3199
g1508
asbasbasbag54
(g70
g56
NtRp3200
(dp3201
g59
(dp3202
sg68
g2902
sg61
(lp3203
g54
(g75
g56
NtRp3204
(dp3205
g59
(dp3206
g79
g80
ssg68
g3200
sg61
(lp3207
S'HTTP_USER_AGENT'
p3208
asbag54
(g75
g56
NtRp3209
(dp3210
g59
(dp3211
g86
g87
ssg68
g3200
sg61
(lp3212
S':'
asbag54
(g75
g56
NtRp3213
(dp3214
g59
(dp3215
sg68
g3200
sg61
(lp3216
g54
(g55
g56
NtRp3217
(dp3218
g59
(dp3219
g67
I3
ssg68
g3213
sg61
(lp3220
g1530
asbasbasbag54
(g70
g56
NtRp3221
(dp3222
g59
(dp3223
sg68
g2902
sg61
(lp3224
g54
(g75
g56
NtRp3225
(dp3226
g59
(dp3227
g79
g80
ssg68
g3221
sg61
(lp3228
S'HTTP_X_REQUESTED_WITH'
p3229
asbag54
(g75
g56
NtRp3230
(dp3231
g59
(dp3232
g86
g87
ssg68
g3221
sg61
(lp3233
S':'
asbag54
(g75
g56
NtRp3234
(dp3235
g59
(dp3236
sg68
g3221
sg61
(lp3237
g54
(g55
g56
NtRp3238
(dp3239
g59
(dp3240
g67
I3
ssg68
g3234
sg61
(lp3241
g1552
asbasbasbag54
(g70
g56
NtRp3242
(dp3243
g59
(dp3244
sg68
g2902
sg61
(lp3245
g54
(g75
g56
NtRp3246
(dp3247
g59
(dp3248
g79
g80
ssg68
g3242
sg61
(lp3249
S'PATH_INFO'
p3250
asbag54
(g75
g56
NtRp3251
(dp3252
g59
(dp3253
g86
g87
ssg68
g3242
sg61
(lp3254
S':'
asbag54
(g75
g56
NtRp3255
(dp3256
g59
(dp3257
sg68
g3242
sg61
(lp3258
g54
(g55
g56
NtRp3259
(dp3260
g59
(dp3261
g67
I3
ssg68
g3255
sg61
(lp3262
g1616
asbasbasbag54
(g70
g56
NtRp3263
(dp3264
g59
(dp3265
sg68
g2902
sg61
(lp3266
g54
(g75
g56
NtRp3267
(dp3268
g59
(dp3269
g79
g80
ssg68
g3263
sg61
(lp3270
S'QUERY_STRING'
p3271
asbag54
(g75
g56
NtRp3272
(dp3273
g59
(dp3274
g86
g87
ssg68
g3263
sg61
(lp3275
S':'
asbag54
(g75
g56
NtRp3276
(dp3277
g59
(dp3278
sg68
g3263
sg61
(lp3279
g54
(g55
g56
NtRp3280
(dp3281
g59
(dp3282
g67
I3
ssg68
g3276
sg61
(lp3283
S''
asbasbasbag54
(g70
g56
NtRp3284
(dp3285
g59
(dp3286
sg68
g2902
sg61
(lp3287
g54
(g75
g56
NtRp3288
(dp3289
g59
(dp3290
g79
g80
ssg68
g3284
sg61
(lp3291
S'REMOTE_ADDR'
p3292
asbag54
(g75
g56
NtRp3293
(dp3294
g59
(dp3295
g86
g87
ssg68
g3284
sg61
(lp3296
S':'
asbag54
(g75
g56
NtRp3297
(dp3298
g59
(dp3299
sg68
g3284
sg61
(lp3300
g54
(g55
g56
NtRp3301
(dp3302
g59
(dp3303
g67
I3
ssg68
g3297
sg61
(lp3304
g222
asbasbasbag54
(g70
g56
NtRp3305
(dp3306
g59
(dp3307
sg68
g2902
sg61
(lp3308
g54
(g75
g56
NtRp3309
(dp3310
g59
(dp3311
g79
g80
ssg68
g3305
sg61
(lp3312
S'REMOTE_PORT'
p3313
asbag54
(g75
g56
NtRp3314
(dp3315
g59
(dp3316
g86
g87
ssg68
g3305
sg61
(lp3317
S':'
asbag54
(g75
g56
NtRp3318
(dp3319
g59
(dp3320
sg68
g3305
sg61
(lp3321
g54
(g55
g56
NtRp3322
(dp3323
g59
(dp3324
g67
I3
ssg68
g3318
sg61
(lp3325
g1680
asbasbasbag54
(g70
g56
NtRp3326
(dp3327
g59
(dp3328
sg68
g2902
sg61
(lp3329
g54
(g75
g56
NtRp3330
(dp3331
g59
(dp3332
g79
g80
ssg68
g3326
sg61
(lp3333
S'REQUEST_METHOD'
p3334
asbag54
(g75
g56
NtRp3335
(dp3336
g59
(dp3337
g86
g87
ssg68
g3326
sg61
(lp3338
S':'
asbag54
(g75
g56
NtRp3339
(dp3340
g59
(dp3341
sg68
g3326
sg61
(lp3342
g54
(g55
g56
NtRp3343
(dp3344
g59
(dp3345
g67
I3
ssg68
g3339
sg61
(lp3346
g1702
asbasbasbag54
(g70
g56
NtRp3347
(dp3348
g59
(dp3349
sg68
g2902
sg61
(lp3350
g54
(g75
g56
NtRp3351
(dp3352
g59
(dp3353
g79
g80
ssg68
g3347
sg61
(lp3354
S'REQUEST_URI'
p3355
asbag54
(g75
g56
NtRp3356
(dp3357
g59
(dp3358
g86
g87
ssg68
g3347
sg61
(lp3359
S':'
asbag54
(g75
g56
NtRp3360
(dp3361
g59
(dp3362
sg68
g3347
sg61
(lp3363
g54
(g55
g56
NtRp3364
(dp3365
g59
(dp3366
g67
I3
ssg68
g3360
sg61
(lp3367
g1616
asbasbasbag54
(g70
g56
NtRp3368
(dp3369
g59
(dp3370
sg68
g2902
sg61
(lp3371
g54
(g75
g56
NtRp3372
(dp3373
g59
(dp3374
g79
g80
ssg68
g3368
sg61
(lp3375
S'SCRIPT_NAME'
p3376
asbag54
(g75
g56
NtRp3377
(dp3378
g59
(dp3379
g86
g87
ssg68
g3368
sg61
(lp3380
S':'
asbag54
(g75
g56
NtRp3381
(dp3382
g59
(dp3383
sg68
g3368
sg61
(lp3384
g54
(g55
g56
NtRp3385
(dp3386
g59
(dp3387
g67
I3
ssg68
g3381
sg61
(lp3388
S''
asbasbasbag54
(g70
g56
NtRp3389
(dp3390
g59
(dp3391
sg68
g2902
sg61
(lp3392
g54
(g75
g56
NtRp3393
(dp3394
g59
(dp3395
g79
g80
ssg68
g3389
sg61
(lp3396
S'SERVER_NAME'
p3397
asbag54
(g75
g56
NtRp3398
(dp3399
g59
(dp3400
g86
g87
ssg68
g3389
sg61
(lp3401
S':'
asbag54
(g75
g56
NtRp3402
(dp3403
g59
(dp3404
sg68
g3389
sg61
(lp3405
g54
(g55
g56
NtRp3406
(dp3407
g59
(dp3408
g67
I3
ssg68
g3402
sg61
(lp3409
g1766
asbasbasbag54
(g70
g56
NtRp3410
(dp3411
g59
(dp3412
sg68
g2902
sg61
(lp3413
g54
(g75
g56
NtRp3414
(dp3415
g59
(dp3416
g79
g80
ssg68
g3410
sg61
(lp3417
S'SERVER_PORT'
p3418
asbag54
(g75
g56
NtRp3419
(dp3420
g59
(dp3421
g86
g87
ssg68
g3410
sg61
(lp3422
S':'
asbag54
(g75
g56
NtRp3423
(dp3424
g59
(dp3425
sg68
g3410
sg61
(lp3426
g54
(g55
g56
NtRp3427
(dp3428
g59
(dp3429
g67
I3
ssg68
g3423
sg61
(lp3430
g1788
asbasbasbag54
(g70
g56
NtRp3431
(dp3432
g59
(dp3433
sg68
g2902
sg61
(lp3434
g54
(g75
g56
NtRp3435
(dp3436
g59
(dp3437
g79
g80
ssg68
g3431
sg61
(lp3438
S'SERVER_PROTOCOL'
p3439
asbag54
(g75
g56
NtRp3440
(dp3441
g59
(dp3442
g86
g87
ssg68
g3431
sg61
(lp3443
S':'
asbag54
(g75
g56
NtRp3444
(dp3445
g59
(dp3446
sg68
g3431
sg61
(lp3447
g54
(g55
g56
NtRp3448
(dp3449
g59
(dp3450
g67
I3
ssg68
g3444
sg61
(lp3451
g1810
asbasbasbag54
(g70
g56
NtRp3452
(dp3453
g59
(dp3454
sg68
g2902
sg61
(lp3455
g54
(g75
g56
NtRp3456
(dp3457
g59
(dp3458
g79
g80
ssg68
g3452
sg61
(lp3459
S'SERVER_SOFTWARE'
p3460
asbag54
(g75
g56
NtRp3461
(dp3462
g59
(dp3463
g86
g87
ssg68
g3452
sg61
(lp3464
S':'
asbag54
(g75
g56
NtRp3465
(dp3466
g59
(dp3467
sg68
g3452
sg61
(lp3468
g54
(g55
g56
NtRp3469
(dp3470
g59
(dp3471
g67
I3
ssg68
g3465
sg61
(lp3472
g1832
asbasbasbag54
(g70
g56
NtRp3473
(dp3474
g59
(dp3475
sg68
g2902
sg61
(lp3476
g54
(g75
g56
NtRp3477
(dp3478
g59
(dp3479
g79
g80
ssg68
g3473
sg61
(lp3480
S'wsgi.errors'
p3481
asbag54
(g75
g56
NtRp3482
(dp3483
g59
(dp3484
g86
g87
ssg68
g3473
sg61
(lp3485
S':'
asbag54
(g75
g56
NtRp3486
(dp3487
g59
(dp3488
sg68
g3473
sg61
(lp3489
g54
(g55
g56
NtRp3490
(dp3491
g59
(dp3492
g67
I3
ssg68
g3486
sg61
(lp3493
S"<open file '<stderr>', mode 'w' at 0x01D750D0>"
p3494
asbasbasbag54
(g70
g56
NtRp3495
(dp3496
g59
(dp3497
sg68
g2902
sg61
(lp3498
g54
(g75
g56
NtRp3499
(dp3500
g59
(dp3501
g79
g80
ssg68
g3495
sg61
(lp3502
S'wsgi.file_wrapper'
p3503
asbag54
(g75
g56
NtRp3504
(dp3505
g59
(dp3506
g86
g87
ssg68
g3495
sg61
(lp3507
S':'
asbag54
(g75
g56
NtRp3508
(dp3509
g59
(dp3510
sg68
g3495
sg61
(lp3511
g54
(g55
g56
NtRp3512
(dp3513
g59
(dp3514
g67
I3
ssg68
g3508
sg61
(lp3515
S'<class wsgiref.util.FileWrapper at 0x034D0EA0>'
p3516
asbasbasbag54
(g70
g56
NtRp3517
(dp3518
g59
(dp3519
sg68
g2902
sg61
(lp3520
g54
(g75
g56
NtRp3521
(dp3522
g59
(dp3523
g79
g80
ssg68
g3517
sg61
(lp3524
S'wsgi.input'
p3525
asbag54
(g75
g56
NtRp3526
(dp3527
g59
(dp3528
g86
g87
ssg68
g3517
sg61
(lp3529
S':'
asbag54
(g75
g56
NtRp3530
(dp3531
g59
(dp3532
sg68
g3517
sg61
(lp3533
g54
(g55
g56
NtRp3534
(dp3535
g59
(dp3536
g67
I3
ssg68
g3530
sg61
(lp3537
S"<closed file '<fdopen>', mode 'w+b' at 0x03E96D88>"
p3538
asbasbasbag54
(g70
g56
NtRp3539
(dp3540
g59
(dp3541
sg68
g2902
sg61
(lp3542
g54
(g75
g56
NtRp3543
(dp3544
g59
(dp3545
g79
g80
ssg68
g3539
sg61
(lp3546
S'wsgi.multiprocess'
p3547
asbag54
(g75
g56
NtRp3548
(dp3549
g59
(dp3550
g86
g87
ssg68
g3539
sg61
(lp3551
S':'
asbag54
(g75
g56
NtRp3552
(dp3553
g59
(dp3554
sg68
g3539
sg61
(lp3555
g54
(g55
g56
NtRp3556
(dp3557
g59
(dp3558
g67
I3
ssg68
g3552
sg61
(lp3559
g1225
asbasbasbag54
(g70
g56
NtRp3560
(dp3561
g59
(dp3562
sg68
g2902
sg61
(lp3563
g54
(g75
g56
NtRp3564
(dp3565
g59
(dp3566
g79
g80
ssg68
g3560
sg61
(lp3567
S'wsgi.multithread'
p3568
asbag54
(g75
g56
NtRp3569
(dp3570
g59
(dp3571
g86
g87
ssg68
g3560
sg61
(lp3572
S':'
asbag54
(g75
g56
NtRp3573
(dp3574
g59
(dp3575
sg68
g3560
sg61
(lp3576
g54
(g55
g56
NtRp3577
(dp3578
g59
(dp3579
g67
I3
ssg68
g3573
sg61
(lp3580
g97
asbasbasbag54
(g70
g56
NtRp3581
(dp3582
g59
(dp3583
sg68
g2902
sg61
(lp3584
g54
(g75
g56
NtRp3585
(dp3586
g59
(dp3587
g79
g80
ssg68
g3581
sg61
(lp3588
S'wsgi.run_once'
p3589
asbag54
(g75
g56
NtRp3590
(dp3591
g59
(dp3592
g86
g87
ssg68
g3581
sg61
(lp3593
S':'
asbag54
(g75
g56
NtRp3594
(dp3595
g59
(dp3596
sg68
g3581
sg61
(lp3597
g54
(g55
g56
NtRp3598
(dp3599
g59
(dp3600
g67
I3
ssg68
g3594
sg61
(lp3601
g1225
asbasbasbag54
(g70
g56
NtRp3602
(dp3603
g59
(dp3604
sg68
g2902
sg61
(lp3605
g54
(g75
g56
NtRp3606
(dp3607
g59
(dp3608
g79
g80
ssg68
g3602
sg61
(lp3609
S'wsgi.url_scheme'
p3610
asbag54
(g75
g56
NtRp3611
(dp3612
g59
(dp3613
g86
g87
ssg68
g3602
sg61
(lp3614
S':'
asbag54
(g75
g56
NtRp3615
(dp3616
g59
(dp3617
sg68
g3602
sg61
(lp3618
g54
(g55
g56
NtRp3619
(dp3620
g59
(dp3621
g67
I3
ssg68
g3615
sg61
(lp3622
g2113
asbasbasbag54
(g70
g56
NtRp3623
(dp3624
g59
(dp3625
sg68
g2902
sg61
(lp3626
g54
(g75
g56
NtRp3627
(dp3628
g59
(dp3629
g79
g80
ssg68
g3623
sg61
(lp3630
S'wsgi.version'
p3631
asbag54
(g75
g56
NtRp3632
(dp3633
g59
(dp3634
g86
g87
ssg68
g3623
sg61
(lp3635
S':'
asbag54
(g75
g56
NtRp3636
(dp3637
g59
(dp3638
sg68
g3623
sg61
(lp3639
g54
(g55
g56
NtRp3640
(dp3641
g59
(dp3642
g67
I3
ssg68
g3636
sg61
(lp3643
S'1'
asbasbasbasbasbasbasbasbasbasbasbasbasbsS'frames'
p3644
(lp3645
(dp3646
S'file'
p3647
S'D:\\home\\dev\\python\\web2py\\gluon\\main.py'
p3648
sS'dump'
p3649
(dp3650
S'global serve_controller'
p3651
S'<function serve_controller>'
p3652
sS'session'
p3653
S"<Storage {'commands:home': ['print hai\\n'], '_us...n.contrib.shell.History instance at 0x03E89968>}>"
p3654
sS'request'
p3655
S"<Storage {'function': 'callback', 'body': <close...t_vars': <Storage {'statement': 'print hai\\n'}>}>"
p3656
sS'response'
p3657
S"<Storage {'body': <cStringIO.StringO object at 0...> at 0x03EA03B0>, 'view': 'shell/callback.html'}>"
p3658
ssS'lnum'
p3659
I514
sS'lines'
p3660
(dp3661
I512
S'                    gluon.debug.dbg.do_debug(mainpyfile=request.folder)'
p3662
sI513
S''
sI514
S'                serve_controller(request, response, session)'
p3663
sI515
S''
sI516
S'            except HTTP, http_response:'
p3664
sI517
S''
sI518
S'                if static_file:'
p3665
sI509
S'                if global_settings.debugging and app != "admin":'
p3666
sI510
S'                    import gluon.debug'
p3667
sI511
S'                    # activate the debugger'
p3668
ssS'call'
p3669
S"(environ={'CONTENT_LENGTH': '22', 'CONTENT_TYPE': 'application/x-www-form-urlencoded; charset=UTF-8', 'HTTP_ACCEPT': '*/*', 'HTTP_ACCEPT_ENCODING': 'gzip, deflate', 'HTTP_ACCEPT_LANGUAGE': 'en-gb,en;q=0.7,nl;q=0.3', 'HTTP_CACHE_CONTROL': 'no-cache', 'HTTP_CONNECTION': 'keep-alive', 'HTTP_CONTENT_LENGTH': '22', 'HTTP_CONTENT_TYPE': 'application/x-www-form-urlencoded; charset=UTF-8', 'HTTP_COOKIE': 'session_id_welcome=127.0.0.1-01815780-1d66-47f0-...me=127.0.0.1-a6ef227c-6672-46ba-be75-c1a625f41610', ...}, responder=<function responder2>)"
p3670
sS'func'
p3671
S'wsgibase'
p3672
sa(dp3673
g3647
S'D:\\home\\dev\\python\\web2py\\gluon\\main.py'
p3674
sg3649
(dp3675
S'global run_controller_in'
p3676
S'<function run_controller_in>'
p3677
sS'request.controller'
p3678
S"'shell'"
p3679
sS'request'
p3680
S"<Storage {'function': 'callback', 'body': <close...t_vars': <Storage {'statement': 'print hai\\n'}>}>"
p3681
sS'environment'
p3682
S"{'A': <class 'gluon.html.A'>, 'ALLOW_TOGGLE': 'true', 'A_button': <function A_button>, 'B': <class 'gluon.html.B'>, 'BEAUTIFY': <class 'gluon.html.BEAUTIFY'>, 'BODY': <class 'gluon.html.BODY'>, 'BR': <class 'gluon.html.BR'>, 'BUTTON': <class 'gluon.html.BUTTON'>, 'CAT': <class 'gluon.html.CAT'>, 'CENTER': <class 'gluon.html.CENTER'>, ...}"
p3683
sS'request.function'
p3684
S"'callback'"
p3685
sS'page'
p3686
S'undefined'
p3687
ssg3659
I218
sg3660
(dp3688
I213
S'    # process models, controller and view (if required)'
p3689
sI214
S'    # ##################################################'
p3690
sI215
S''
sI216
S'    run_models_in(environment)'
p3691
sI217
S'    response._view_environment = copy.copy(environment)'
p3692
sI218
S'    page = run_controller_in(request.controller, request.function, environment)'
p3693
sI219
S'    if isinstance(page, dict):'
p3694
sI220
S'        response._vars = page'
p3695
sI221
S'        response._view_environment.update(page)'
p3696
sI222
S'        run_view_in(response._view_environment)'
p3697
ssg3669
S"(request=<Storage {'function': 'callback', 'body': <close...t_vars': <Storage {'statement': 'print hai\\n'}>}>, response=<Storage {'body': <cStringIO.StringO object at 0...> at 0x03EA03B0>, 'view': 'shell/callback.html'}>, session=<Storage {'commands:home': ['print hai\\n'], '_us...n.contrib.shell.History instance at 0x03E89968>}>)"
p3698
sg3671
S'serve_controller'
p3699
sa(dp3700
g3647
S'D:\\home\\dev\\python\\web2py\\gluon\\compileapp.py'
p3701
sg3649
(dp3702
S'environment'
p3703
S"{'A': <class 'gluon.html.A'>, 'ALLOW_TOGGLE': 'true', 'A_button': <function A_button>, 'B': <class 'gluon.html.B'>, 'BEAUTIFY': <class 'gluon.html.BEAUTIFY'>, 'BODY': <class 'gluon.html.BODY'>, 'BR': <class 'gluon.html.BR'>, 'BUTTON': <class 'gluon.html.BUTTON'>, 'CAT': <class 'gluon.html.CAT'>, 'CENTER': <class 'gluon.html.CENTER'>, ...}"
p3704
sS'code'
p3705
S'"import sys\\nimport cStringIO\\nimport gluon.contrib...ne\'\\n\\n\\n\\nresponse._vars=response._caller(callback)\\n"'
p3706
sS'global restricted'
p3707
S'<function restricted>'
p3708
sS'filename'
p3709
S"r'D:\\home\\dev\\python\\web2py\\applications\\admin\\controllers/shell.py'"
p3710
ssg3659
I578
sg3660
(dp3711
I576
S"            layer = filename + ':' + function"
p3712
sI577
S'            code = getcfs(layer, filename,  lambda: compile2(code,layer))'
p3713
sI578
S'        restricted(code, environment, filename)'
p3714
sI579
S"    response = environment['response']"
p3715
sI580
S'    vars=response._vars'
p3716
sI581
S'    if response.postprocessing:'
p3717
sI582
S'        for p in response.postprocessing:'
p3718
sI573
S'                       web2py_error=badf)'
p3719
sI574
S'        code = "%s\\nresponse._vars=response._caller(%s)\\n" % (code, function)'
p3720
sI575
S'        if is_gae:'
p3721
ssg3669
S"(controller='shell', function='callback', environment={'A': <class 'gluon.html.A'>, 'ALLOW_TOGGLE': 'true', 'A_button': <function A_button>, 'B': <class 'gluon.html.B'>, 'BEAUTIFY': <class 'gluon.html.BEAUTIFY'>, 'BODY': <class 'gluon.html.BODY'>, 'BR': <class 'gluon.html.BR'>, 'BUTTON': <class 'gluon.html.BUTTON'>, 'CAT': <class 'gluon.html.CAT'>, 'CENTER': <class 'gluon.html.CENTER'>, ...})"
p3722
sg3671
S'run_controller_in'
p3723
sa(dp3724
g3647
S'D:\\home\\dev\\python\\web2py\\gluon\\restricted.py'
p3725
sg3649
(dp3726
S'environment'
p3727
S"{'A': <class 'gluon.html.A'>, 'ALLOW_TOGGLE': 'true', 'A_button': <function A_button>, 'B': <class 'gluon.html.B'>, 'BEAUTIFY': <class 'gluon.html.BEAUTIFY'>, 'BODY': <class 'gluon.html.BODY'>, 'BR': <class 'gluon.html.BR'>, 'BUTTON': <class 'gluon.html.BUTTON'>, 'CAT': <class 'gluon.html.CAT'>, 'CENTER': <class 'gluon.html.CENTER'>, ...}"
p3728
sS'ccode'
p3729
S'<code object <module> at 03E99650, file "D:\\home...applications\\admin\\controllers/shell.py", line 1>'
p3730
ssg3659
I209
sg3660
(dp3731
I204
S'    try:'
p3732
sI205
S'        if type(code) == types.CodeType:'
p3733
sI206
S'            ccode = code'
p3734
sI207
S'        else:'
p3735
sI208
S'            ccode = compile2(code,layer)'
p3736
sI209
S'        exec ccode in environment'
p3737
sI210
S'    except HTTP:'
p3738
sI211
S'        raise'
p3739
sI212
S'    except RestrictedError:'
p3740
sI213
S'        # do not encapsulate (obfuscate) the original RestrictedError'
p3741
ssg3669
S'(code="import sys\\nimport cStringIO\\nimport gluon.contrib...ne\'\\n\\n\\n\\nresponse._vars=response._caller(callback)\\n", environment={\'A\': <class \'gluon.html.A\'>, \'ALLOW_TOGGLE\': \'true\', \'A_button\': <function A_button>, \'B\': <class \'gluon.html.B\'>, \'BEAUTIFY\': <class \'gluon.html.BEAUTIFY\'>, \'BODY\': <class \'gluon.html.BODY\'>, \'BR\': <class \'gluon.html.BR\'>, \'BUTTON\': <class \'gluon.html.BUTTON\'>, \'CAT\': <class \'gluon.html.CAT\'>, \'CENTER\': <class \'gluon.html.CENTER\'>, ...}, layer=r\'D:\\home\\dev\\python\\web2py\\applications\\admin\\controllers/shell.py\')'
p3742
sg3671
S'restricted'
p3743
sa(dp3744
g3647
S'D:\\home\\dev\\python\\web2py\\applications\\admin\\controllers\\shell.py'
p3745
sg3649
(dp3746
sg3659
I49
sg3660
(dp3747
I38
S"    #return TABLE(TR('In[%i]:'%k,PRE(command)),TR('Out[%i]:'%k,output))"
p3748
sI39
S"    return 'In [%i] : %s%s\\n' % (k + 1, command, output)"
p3749
sI40
S''
sI41
S'def reset():'
p3750
sI42
S"    app = request.args(0) or 'admin'"
p3751
sI43
S"    session['commands:'+app] = []"
p3752
sI44
S"    session['history:'+app] = gluon.contrib.shell.History()"
p3753
sI45
S"    return 'done'"
p3754
sI46
S''
sI47
S''
ssg3669
S'()'
p3755
sg3671
S'<module>'
p3756
sa(dp3757
g3647
S'D:\\home\\dev\\python\\web2py\\gluon\\globals.py'
p3758
sg3649
(dp3759
S'self'
p3760
g3687
sS'f'
S'<function callback>'
p3761
ssg3659
I186
sg3660
(dp3762
I181
S'        self.menu = []             # used by the default view layout'
p3763
sI182
S'        self.files = []            # used by web2py_ajax.html'
p3764
sI183
S'        self.generic_patterns = [] # patterns to allow generic views'
p3765
sI184
S"        self.delimiters = ('{{','}}')"
p3766
sI185
S'        self._vars = None'
p3767
sI186
S'        self._caller = lambda f: f()'
p3768
sI187
S'        self._view_environment = None'
p3769
sI188
S'        self._custom_commit = None'
p3770
sI189
S'        self._custom_rollback = None'
p3771
sI190
S''
ssg3669
S'(f=<function callback>)'
p3772
sg3671
S'<lambda>'
p3773
sa(dp3774
g3647
S'D:\\home\\dev\\python\\web2py\\applications\\admin\\controllers\\shell.py'
p3775
sg3649
(dp3776
S'app'
p3777
S"'home'"
p3778
sS'environ'
p3779
g3687
sS'builtinTrue'
p3780
g97
sS'global env'
p3781
S'<function env>'
p3782
ssg3659
I34
sg3660
(dp3783
I32
S"            return ''"
p3784
sI33
S"    session['commands:'+app].append(command)"
p3785
sI34
S'    environ=env(app,True)'
p3786
sI35
S'    output = gluon.contrib.shell.run(history,command,environ)'
p3787
sI36
S"    k = len(session['commands:'+app]) - 1"
p3788
sI37
S'    #output = PRE(output)'
p3789
sI38
S"    #return TABLE(TR('In[%i]:'%k,PRE(command)),TR('Out[%i]:'%k,output))"
p3790
sI29
S'        try:'
p3791
sI30
S"            command=session['commands:'+app][int(command[1:])]"
p3792
sI31
S'        except ValueError:'
p3793
ssg3669
S'()'
p3794
sg3671
S'callback'
p3795
sa(dp3796
g3647
S'D:\\home\\dev\\python\\web2py\\gluon\\shell.py'
p3797
sg3649
(dp3798
S'global sys'
p3799
S"<module 'sys' (built-in)>"
p3800
sS'sys.exit'
p3801
S'<built-in function exit>'
p3802
ssg3659
I134
sg3660
(dp3803
I129
S'    if import_models:'
p3804
sI130
S'        try:'
p3805
sI131
S'            run_models_in(environment)'
p3806
sI132
S'        except RestrictedError, e:'
p3807
sI133
S"            sys.stderr.write(e.traceback+'\\n')"
p3808
sI134
S'            sys.exit(1)'
p3809
sI135
S''
sI136
S"    environment['__name__'] = '__main__'"
p3810
sI137
S'    return environment'
p3811
sI138
S''
ssg3669
S"(a='home', import_models=True, c=None, f=None, dir='', extra_request={})"
p3812
sg3671
g1030
sasS'pyver'
p3813
S'Python 2.7.3: C:\\Python27\\python.exe'
p3814
sS'session'
p3815
g54
(g55
g56
NtRp3816
(dp3817
g59
(dp3818
sg61
(lp3819
g54
(g63
g56
NtRp3820
(dp3821
g59
(dp3822
g67
I5
ssg68
Nsg61
(lp3823
g54
(g70
g56
NtRp3824
(dp3825
g59
(dp3826
sg68
g3820
sg61
(lp3827
g54
(g75
g56
NtRp3828
(dp3829
g59
(dp3830
g79
g80
ssg68
g3824
sg61
(lp3831
S'authorized'
p3832
asbag54
(g75
g56
NtRp3833
(dp3834
g59
(dp3835
g86
g87
ssg68
g3824
sg61
(lp3836
S':'
asbag54
(g75
g56
NtRp3837
(dp3838
g59
(dp3839
sg68
g3824
sg61
(lp3840
g54
(g55
g56
NtRp3841
(dp3842
g59
(dp3843
g67
I5
ssg68
g3837
sg61
(lp3844
g97
asbasbasbag54
(g70
g56
NtRp3845
(dp3846
g59
(dp3847
sg68
g3820
sg61
(lp3848
g54
(g75
g56
NtRp3849
(dp3850
g59
(dp3851
g79
g80
ssg68
g3845
sg61
(lp3852
S'check_version'
p3853
asbag54
(g75
g56
NtRp3854
(dp3855
g59
(dp3856
g86
g87
ssg68
g3845
sg61
(lp3857
S':'
asbag54
(g75
g56
NtRp3858
(dp3859
g59
(dp3860
sg68
g3845
sg61
(lp3861
g54
(g55
g56
NtRp3862
(dp3863
g59
(dp3864
g67
I5
ssg68
g3858
sg61
(lp3865
g1225
asbasbasbag54
(g70
g56
NtRp3866
(dp3867
g59
(dp3868
sg68
g3820
sg61
(lp3869
g54
(g75
g56
NtRp3870
(dp3871
g59
(dp3872
g79
g80
ssg68
g3866
sg61
(lp3873
S'commands:home'
p3874
asbag54
(g75
g56
NtRp3875
(dp3876
g59
(dp3877
g86
g87
ssg68
g3866
sg61
(lp3878
S':'
asbag54
(g75
g56
NtRp3879
(dp3880
g59
(dp3881
sg68
g3866
sg61
(lp3882
g54
(g55
g56
NtRp3883
(dp3884
g59
(dp3885
g67
I5
ssg68
g3879
sg61
(lp3886
g54
(g63
g56
NtRp3887
(dp3888
g59
(dp3889
g67
I4
ssg68
Nsg61
(lp3890
g54
(g70
g56
NtRp3891
(dp3892
g59
(dp3893
sg68
g3887
sg61
(lp3894
g54
(g75
g56
NtRp3895
(dp3896
g59
(dp3897
sg68
g3891
sg61
(lp3898
g54
(g55
g56
NtRp3899
(dp3900
g59
(dp3901
g67
I4
ssg68
g3895
sg61
(lp3902
g2702
asbasbasbasbasbasbasbag54
(g70
g56
NtRp3903
(dp3904
g59
(dp3905
sg68
g3820
sg61
(lp3906
g54
(g75
g56
NtRp3907
(dp3908
g59
(dp3909
g79
g80
ssg68
g3903
sg61
(lp3910
S'flash'
p3911
asbag54
(g75
g56
NtRp3912
(dp3913
g59
(dp3914
g86
g87
ssg68
g3903
sg61
(lp3915
S':'
asbag54
(g75
g56
NtRp3916
(dp3917
g59
(dp3918
sg68
g3903
sg61
(lp3919
g54
(g55
g56
NtRp3920
(dp3921
g59
(dp3922
g67
I5
ssg68
g3916
sg61
(lp3923
S'None'
p3924
asbasbasbag54
(g70
g56
NtRp3925
(dp3926
g59
(dp3927
sg68
g3820
sg61
(lp3928
g54
(g75
g56
NtRp3929
(dp3930
g59
(dp3931
g79
g80
ssg68
g3925
sg61
(lp3932
S'history:home'
p3933
asbag54
(g75
g56
NtRp3934
(dp3935
g59
(dp3936
g86
g87
ssg68
g3925
sg61
(lp3937
S':'
asbag54
(g75
g56
NtRp3938
(dp3939
g59
(dp3940
sg68
g3925
sg61
(lp3941
g54
(g55
g56
NtRp3942
(dp3943
g59
(dp3944
g67
I5
ssg68
g3938
sg61
(lp3945
S'<gluon.contrib.shell.History instance at 0x03E89968>'
p3946
asbasbasbag54
(g70
g56
NtRp3947
(dp3948
g59
(dp3949
sg68
g3820
sg61
(lp3950
g54
(g75
g56
NtRp3951
(dp3952
g59
(dp3953
g79
g80
ssg68
g3947
sg61
(lp3954
S'last_time'
p3955
asbag54
(g75
g56
NtRp3956
(dp3957
g59
(dp3958
g86
g87
ssg68
g3947
sg61
(lp3959
S':'
asbag54
(g75
g56
NtRp3960
(dp3961
g59
(dp3962
sg68
g3947
sg61
(lp3963
g54
(g55
g56
NtRp3964
(dp3965
g59
(dp3966
g67
I5
ssg68
g3960
sg61
(lp3967
S'1350034753.93'
p3968
asbasbasbag54
(g70
g56
NtRp3969
(dp3970
g59
(dp3971
sg68
g3820
sg61
(lp3972
g54
(g75
g56
NtRp3973
(dp3974
g59
(dp3975
g79
g80
ssg68
g3969
sg61
(lp3976
S'pam_user'
p3977
asbag54
(g75
g56
NtRp3978
(dp3979
g59
(dp3980
g86
g87
ssg68
g3969
sg61
(lp3981
S':'
asbag54
(g75
g56
NtRp3982
(dp3983
g59
(dp3984
sg68
g3969
sg61
(lp3985
g54
(g55
g56
NtRp3986
(dp3987
g59
(dp3988
g67
I5
ssg68
g3982
sg61
(lp3989
S'None'
p3990
asbasbasbag54
(g70
g56
NtRp3991
(dp3992
g59
(dp3993
sg68
g3820
sg61
(lp3994
g54
(g75
g56
NtRp3995
(dp3996
g59
(dp3997
g79
g80
ssg68
g3991
sg61
(lp3998
S'token'
p3999
asbag54
(g75
g56
NtRp4000
(dp4001
g59
(dp4002
g86
g87
ssg68
g3991
sg61
(lp4003
S':'
asbag54
(g75
g56
NtRp4004
(dp4005
g59
(dp4006
sg68
g3991
sg61
(lp4007
g54
(g55
g56
NtRp4008
(dp4009
g59
(dp4010
g67
I5
ssg68
g4004
sg61
(lp4011
S'6fc886f5-1865-423d-946a-dad2b6a52770'
p4012
asbasbasbasbasbsS'etype'
p4013
S"<type 'exceptions.SystemExit'>"
p4014
sS'date'
p4015
S'Fri Oct 12 11:39:14 2012'
p4016
sS'response'
p4017
g54
(g55
g56
NtRp4018
(dp4019
g59
(dp4020
sg61
(lp4021
g54
(g63
g56
NtRp4022
(dp4023
g59
(dp4024
g67
I5
ssg68
Nsg61
(lp4025
g54
(g70
g56
NtRp4026
(dp4027
g59
(dp4028
sg68
g4022
sg61
(lp4029
g54
(g75
g56
NtRp4030
(dp4031
g59
(dp4032
g79
g80
ssg68
g4026
sg61
(lp4033
g165
asbag54
(g75
g56
NtRp4034
(dp4035
g59
(dp4036
g86
g87
ssg68
g4026
sg61
(lp4037
S':'
asbag54
(g75
g56
NtRp4038
(dp4039
g59
(dp4040
sg68
g4026
sg61
(lp4041
g54
(g55
g56
NtRp4042
(dp4043
g59
(dp4044
g67
I5
ssg68
g4038
sg61
(lp4045
S'<cStringIO.StringO object at 0x03E8A440>'
p4046
asbasbasbag54
(g70
g56
NtRp4047
(dp4048
g59
(dp4049
sg68
g4022
sg61
(lp4050
g54
(g75
g56
NtRp4051
(dp4052
g59
(dp4053
g79
g80
ssg68
g4047
sg61
(lp4054
g253
asbag54
(g75
g56
NtRp4055
(dp4056
g59
(dp4057
g86
g87
ssg68
g4047
sg61
(lp4058
S':'
asbag54
(g75
g56
NtRp4059
(dp4060
g59
(dp4061
sg68
g4047
sg61
(lp4062
g54
(g55
g56
NtRp4063
(dp4064
g59
(dp4065
g67
I5
ssg68
g4059
sg61
(lp4066
g54
(g63
g56
NtRp4067
(dp4068
g59
(dp4069
g67
I4
ssg68
Nsg61
(lp4070
g54
(g70
g56
NtRp4071
(dp4072
g59
(dp4073
sg68
g4067
sg61
(lp4074
g54
(g75
g56
NtRp4075
(dp4076
g59
(dp4077
g79
g80
ssg68
g4071
sg61
(lp4078
S'session_id_admin'
p4079
asbag54
(g75
g56
NtRp4080
(dp4081
g59
(dp4082
g86
g87
ssg68
g4071
sg61
(lp4083
S':'
asbag54
(g75
g56
NtRp4084
(dp4085
g59
(dp4086
sg68
g4071
sg61
(lp4087
g54
(g55
g56
NtRp4088
(dp4089
g59
(dp4090
g67
I4
ssg68
g4084
sg61
(lp4091
g485
ag54
(g63
g56
NtRp4092
(dp4093
g59
(dp4094
g67
I3
ssg68
Nsg61
(lp4095
g54
(g70
g56
NtRp4096
(dp4097
g59
(dp4098
sg68
g4092
sg61
(lp4099
g54
(g75
g56
NtRp4100
(dp4101
g59
(dp4102
g79
g80
ssg68
g4096
sg61
(lp4103
g304
asbag54
(g75
g56
NtRp4104
(dp4105
g59
(dp4106
g86
g87
ssg68
g4096
sg61
(lp4107
S':'
asbag54
(g75
g56
NtRp4108
(dp4109
g59
(dp4110
sg68
g4096
sg61
(lp4111
g54
(g55
g56
NtRp4112
(dp4113
g59
(dp4114
g67
I3
ssg68
g4108
sg61
(lp4115
S''
asbasbasbag54
(g70
g56
NtRp4116
(dp4117
g59
(dp4118
sg68
g4092
sg61
(lp4119
g54
(g75
g56
NtRp4120
(dp4121
g59
(dp4122
g79
g80
ssg68
g4116
sg61
(lp4123
g325
asbag54
(g75
g56
NtRp4124
(dp4125
g59
(dp4126
g86
g87
ssg68
g4116
sg61
(lp4127
S':'
asbag54
(g75
g56
NtRp4128
(dp4129
g59
(dp4130
sg68
g4116
sg61
(lp4131
g54
(g55
g56
NtRp4132
(dp4133
g59
(dp4134
g67
I3
ssg68
g4128
sg61
(lp4135
S''
asbasbasbag54
(g70
g56
NtRp4136
(dp4137
g59
(dp4138
sg68
g4092
sg61
(lp4139
g54
(g75
g56
NtRp4140
(dp4141
g59
(dp4142
g79
g80
ssg68
g4136
sg61
(lp4143
g346
asbag54
(g75
g56
NtRp4144
(dp4145
g59
(dp4146
g86
g87
ssg68
g4136
sg61
(lp4147
S':'
asbag54
(g75
g56
NtRp4148
(dp4149
g59
(dp4150
sg68
g4136
sg61
(lp4151
g54
(g55
g56
NtRp4152
(dp4153
g59
(dp4154
g67
I3
ssg68
g4148
sg61
(lp4155
S''
asbasbasbag54
(g70
g56
NtRp4156
(dp4157
g59
(dp4158
sg68
g4092
sg61
(lp4159
g54
(g75
g56
NtRp4160
(dp4161
g59
(dp4162
g79
g80
ssg68
g4156
sg61
(lp4163
g367
asbag54
(g75
g56
NtRp4164
(dp4165
g59
(dp4166
g86
g87
ssg68
g4156
sg61
(lp4167
S':'
asbag54
(g75
g56
NtRp4168
(dp4169
g59
(dp4170
sg68
g4156
sg61
(lp4171
g54
(g55
g56
NtRp4172
(dp4173
g59
(dp4174
g67
I3
ssg68
g4168
sg61
(lp4175
S''
asbasbasbag54
(g70
g56
NtRp4176
(dp4177
g59
(dp4178
sg68
g4092
sg61
(lp4179
g54
(g75
g56
NtRp4180
(dp4181
g59
(dp4182
g79
g80
ssg68
g4176
sg61
(lp4183
g388
asbag54
(g75
g56
NtRp4184
(dp4185
g59
(dp4186
g86
g87
ssg68
g4176
sg61
(lp4187
S':'
asbag54
(g75
g56
NtRp4188
(dp4189
g59
(dp4190
sg68
g4176
sg61
(lp4191
g54
(g55
g56
NtRp4192
(dp4193
g59
(dp4194
g67
I3
ssg68
g4188
sg61
(lp4195
S''
asbasbasbag54
(g70
g56
NtRp4196
(dp4197
g59
(dp4198
sg68
g4092
sg61
(lp4199
g54
(g75
g56
NtRp4200
(dp4201
g59
(dp4202
g79
g80
ssg68
g4196
sg61
(lp4203
g409
asbag54
(g75
g56
NtRp4204
(dp4205
g59
(dp4206
g86
g87
ssg68
g4196
sg61
(lp4207
S':'
asbag54
(g75
g56
NtRp4208
(dp4209
g59
(dp4210
sg68
g4196
sg61
(lp4211
g54
(g55
g56
NtRp4212
(dp4213
g59
(dp4214
g67
I3
ssg68
g4208
sg61
(lp4215
S'/'
asbasbasbag54
(g70
g56
NtRp4216
(dp4217
g59
(dp4218
sg68
g4092
sg61
(lp4219
g54
(g75
g56
NtRp4220
(dp4221
g59
(dp4222
g79
g80
ssg68
g4216
sg61
(lp4223
g430
asbag54
(g75
g56
NtRp4224
(dp4225
g59
(dp4226
g86
g87
ssg68
g4216
sg61
(lp4227
S':'
asbag54
(g75
g56
NtRp4228
(dp4229
g59
(dp4230
sg68
g4216
sg61
(lp4231
g54
(g55
g56
NtRp4232
(dp4233
g59
(dp4234
g67
I3
ssg68
g4228
sg61
(lp4235
S''
asbasbasbag54
(g70
g56
NtRp4236
(dp4237
g59
(dp4238
sg68
g4092
sg61
(lp4239
g54
(g75
g56
NtRp4240
(dp4241
g59
(dp4242
g79
g80
ssg68
g4236
sg61
(lp4243
g451
asbag54
(g75
g56
NtRp4244
(dp4245
g59
(dp4246
g86
g87
ssg68
g4236
sg61
(lp4247
S':'
asbag54
(g75
g56
NtRp4248
(dp4249
g59
(dp4250
sg68
g4236
sg61
(lp4251
g54
(g55
g56
NtRp4252
(dp4253
g59
(dp4254
g67
I3
ssg68
g4248
sg61
(lp4255
S''
asbasbasbasbasbasbasbasbasbasbasbag54
(g70
g56
NtRp4256
(dp4257
g59
(dp4258
sg68
g4022
sg61
(lp4259
g54
(g75
g56
NtRp4260
(dp4261
g59
(dp4262
g79
g80
ssg68
g4256
sg61
(lp4263
S'delimiters'
p4264
asbag54
(g75
g56
NtRp4265
(dp4266
g59
(dp4267
g86
g87
ssg68
g4256
sg61
(lp4268
S':'
asbag54
(g75
g56
NtRp4269
(dp4270
g59
(dp4271
sg68
g4256
sg61
(lp4272
g54
(g55
g56
NtRp4273
(dp4274
g59
(dp4275
g67
I5
ssg68
g4269
sg61
(lp4276
g54
(g63
g56
NtRp4277
(dp4278
g59
(dp4279
g67
I4
ssg68
Nsg61
(lp4280
g54
(g70
g56
NtRp4281
(dp4282
g59
(dp4283
sg68
g4277
sg61
(lp4284
g54
(g75
g56
NtRp4285
(dp4286
g59
(dp4287
sg68
g4281
sg61
(lp4288
g54
(g55
g56
NtRp4289
(dp4290
g59
(dp4291
g67
I4
ssg68
g4285
sg61
(lp4292
S'{{'
p4293
asbasbasbag54
(g70
g56
NtRp4294
(dp4295
g59
(dp4296
sg68
g4277
sg61
(lp4297
g54
(g75
g56
NtRp4298
(dp4299
g59
(dp4300
sg68
g4294
sg61
(lp4301
g54
(g55
g56
NtRp4302
(dp4303
g59
(dp4304
g67
I4
ssg68
g4298
sg61
(lp4305
S'}}'
p4306
asbasbasbasbasbasbasbag54
(g70
g56
NtRp4307
(dp4308
g59
(dp4309
sg68
g4022
sg61
(lp4310
g54
(g75
g56
NtRp4311
(dp4312
g59
(dp4313
g79
g80
ssg68
g4307
sg61
(lp4314
S'files'
p4315
asbag54
(g75
g56
NtRp4316
(dp4317
g59
(dp4318
g86
g87
ssg68
g4307
sg61
(lp4319
S':'
asbag54
(g75
g56
NtRp4320
(dp4321
g59
(dp4322
sg68
g4307
sg61
(lp4323
g54
(g55
g56
NtRp4324
(dp4325
g59
(dp4326
g67
I5
ssg68
g4320
sg61
(lp4327
g54
(g63
g56
NtRp4328
(dp4329
g59
(dp4330
g67
I4
ssg68
Nsg61
(lp4331
g54
(g70
g56
NtRp4332
(dp4333
g59
(dp4334
sg68
g4328
sg61
(lp4335
g54
(g75
g56
NtRp4336
(dp4337
g59
(dp4338
sg68
g4332
sg61
(lp4339
g54
(g55
g56
NtRp4340
(dp4341
g59
(dp4342
g67
I4
ssg68
g4336
sg61
(lp4343
S'/admin/static/plugin_multiselect/jquery.multi-select.js'
p4344
asbasbasbag54
(g70
g56
NtRp4345
(dp4346
g59
(dp4347
sg68
g4328
sg61
(lp4348
g54
(g75
g56
NtRp4349
(dp4350
g59
(dp4351
sg68
g4345
sg61
(lp4352
g54
(g55
g56
NtRp4353
(dp4354
g59
(dp4355
g67
I4
ssg68
g4349
sg61
(lp4356
S'/admin/static/plugin_multiselect/multi-select.css'
p4357
asbasbasbag54
(g70
g56
NtRp4358
(dp4359
g59
(dp4360
sg68
g4328
sg61
(lp4361
g54
(g75
g56
NtRp4362
(dp4363
g59
(dp4364
sg68
g4358
sg61
(lp4365
g54
(g55
g56
NtRp4366
(dp4367
g59
(dp4368
g67
I4
ssg68
g4362
sg61
(lp4369
S'/admin/static/plugin_multiselect/start.js'
p4370
asbasbasbasbasbasbasbag54
(g70
g56
NtRp4371
(dp4372
g59
(dp4373
sg68
g4022
sg61
(lp4374
g54
(g75
g56
NtRp4375
(dp4376
g59
(dp4377
g79
g80
ssg68
g4371
sg61
(lp4378
S'flash'
p4379
asbag54
(g75
g56
NtRp4380
(dp4381
g59
(dp4382
g86
g87
ssg68
g4371
sg61
(lp4383
S':'
asbag54
(g75
g56
NtRp4384
(dp4385
g59
(dp4386
sg68
g4371
sg61
(lp4387
g54
(g55
g56
NtRp4388
(dp4389
g59
(dp4390
g67
I5
ssg68
g4384
sg61
(lp4391
S''
asbasbasbag54
(g70
g56
NtRp4392
(dp4393
g59
(dp4394
sg68
g4022
sg61
(lp4395
g54
(g75
g56
NtRp4396
(dp4397
g59
(dp4398
g79
g80
ssg68
g4392
sg61
(lp4399
S'generic_patterns'
p4400
asbag54
(g75
g56
NtRp4401
(dp4402
g59
(dp4403
g86
g87
ssg68
g4392
sg61
(lp4404
S':'
asbag54
(g75
g56
NtRp4405
(dp4406
g59
(dp4407
sg68
g4392
sg61
(lp4408
g54
(g55
g56
NtRp4409
(dp4410
g59
(dp4411
g67
I5
ssg68
g4405
sg61
(lp4412
g54
(g63
g56
NtRp4413
(dp4414
g59
(dp4415
g67
I4
ssg68
Nsg61
(lp4416
sbasbasbasbag54
(g70
g56
NtRp4417
(dp4418
g59
(dp4419
sg68
g4022
sg61
(lp4420
g54
(g75
g56
NtRp4421
(dp4422
g59
(dp4423
g79
g80
ssg68
g4417
sg61
(lp4424
S'headers'
p4425
asbag54
(g75
g56
NtRp4426
(dp4427
g59
(dp4428
g86
g87
ssg68
g4417
sg61
(lp4429
S':'
asbag54
(g75
g56
NtRp4430
(dp4431
g59
(dp4432
sg68
g4417
sg61
(lp4433
g54
(g55
g56
NtRp4434
(dp4435
g59
(dp4436
g67
I5
ssg68
g4430
sg61
(lp4437
g54
(g63
g56
NtRp4438
(dp4439
g59
(dp4440
g67
I4
ssg68
Nsg61
(lp4441
g54
(g70
g56
NtRp4442
(dp4443
g59
(dp4444
sg68
g4438
sg61
(lp4445
g54
(g75
g56
NtRp4446
(dp4447
g59
(dp4448
g79
g80
ssg68
g4442
sg61
(lp4449
S'X-Powered-By'
p4450
asbag54
(g75
g56
NtRp4451
(dp4452
g59
(dp4453
g86
g87
ssg68
g4442
sg61
(lp4454
S':'
asbag54
(g75
g56
NtRp4455
(dp4456
g59
(dp4457
sg68
g4442
sg61
(lp4458
g54
(g55
g56
NtRp4459
(dp4460
g59
(dp4461
g67
I4
ssg68
g4455
sg61
(lp4462
S'web2py'
p4463
asbasbasbasbasbasbasbag54
(g70
g56
NtRp4464
(dp4465
g59
(dp4466
sg68
g4022
sg61
(lp4467
g54
(g75
g56
NtRp4468
(dp4469
g59
(dp4470
g79
g80
ssg68
g4464
sg61
(lp4471
S'menu'
p4472
asbag54
(g75
g56
NtRp4473
(dp4474
g59
(dp4475
g86
g87
ssg68
g4464
sg61
(lp4476
S':'
asbag54
(g75
g56
NtRp4477
(dp4478
g59
(dp4479
sg68
g4464
sg61
(lp4480
g54
(g55
g56
NtRp4481
(dp4482
g59
(dp4483
g67
I5
ssg68
g4477
sg61
(lp4484
g54
(g63
g56
NtRp4485
(dp4486
g59
(dp4487
g67
I4
ssg68
Nsg61
(lp4488
g54
(g70
g56
NtRp4489
(dp4490
g59
(dp4491
sg68
g4485
sg61
(lp4492
g54
(g75
g56
NtRp4493
(dp4494
g59
(dp4495
sg68
g4489
sg61
(lp4496
g54
(g55
g56
NtRp4497
(dp4498
g59
(dp4499
g67
I4
ssg68
g4493
sg61
(lp4500
g54
(g63
g56
NtRp4501
(dp4502
g59
(dp4503
g67
I3
ssg68
Nsg61
(lp4504
g54
(g70
g56
NtRp4505
(dp4506
g59
(dp4507
sg68
g4501
sg61
(lp4508
g54
(g75
g56
NtRp4509
(dp4510
g59
(dp4511
sg68
g4505
sg61
(lp4512
g54
(g55
g56
NtRp4513
(dp4514
g59
(dp4515
g67
I3
ssg68
g4509
sg61
(lp4516
cgluon.languages
lazyT_unpickle
p4517
(S's\x04\x00\x00\x00Site'
tRp4518
asbasbasbag54
(g70
g56
NtRp4519
(dp4520
g59
(dp4521
sg68
g4501
sg61
(lp4522
g54
(g75
g56
NtRp4523
(dp4524
g59
(dp4525
sg68
g4519
sg61
(lp4526
g54
(g55
g56
NtRp4527
(dp4528
g59
(dp4529
g67
I3
ssg68
g4523
sg61
(lp4530
g1225
asbasbasbag54
(g70
g56
NtRp4531
(dp4532
g59
(dp4533
sg68
g4501
sg61
(lp4534
g54
(g75
g56
NtRp4535
(dp4536
g59
(dp4537
sg68
g4531
sg61
(lp4538
g54
(g55
g56
NtRp4539
(dp4540
g59
(dp4541
g67
I3
ssg68
g4535
sg61
(lp4542
S'/admin/default/site'
p4543
asbasbasbasbasbasbasbag54
(g70
g56
NtRp4544
(dp4545
g59
(dp4546
sg68
g4485
sg61
(lp4547
g54
(g75
g56
NtRp4548
(dp4549
g59
(dp4550
sg68
g4544
sg61
(lp4551
g54
(g55
g56
NtRp4552
(dp4553
g59
(dp4554
g67
I4
ssg68
g4548
sg61
(lp4555
g54
(g63
g56
NtRp4556
(dp4557
g59
(dp4558
g67
I3
ssg68
Nsg61
(lp4559
g54
(g70
g56
NtRp4560
(dp4561
g59
(dp4562
sg68
g4556
sg61
(lp4563
g54
(g75
g56
NtRp4564
(dp4565
g59
(dp4566
sg68
g4560
sg61
(lp4567
g54
(g55
g56
NtRp4568
(dp4569
g59
(dp4570
g67
I3
ssg68
g4564
sg61
(lp4571
g4517
(S's\x04\x00\x00\x00Edit'
tRp4572
asbasbasbag54
(g70
g56
NtRp4573
(dp4574
g59
(dp4575
sg68
g4556
sg61
(lp4576
g54
(g75
g56
NtRp4577
(dp4578
g59
(dp4579
sg68
g4573
sg61
(lp4580
g54
(g55
g56
NtRp4581
(dp4582
g59
(dp4583
g67
I3
ssg68
g4577
sg61
(lp4584
g1225
asbasbasbag54
(g70
g56
NtRp4585
(dp4586
g59
(dp4587
sg68
g4556
sg61
(lp4588
g54
(g75
g56
NtRp4589
(dp4590
g59
(dp4591
sg68
g4585
sg61
(lp4592
g54
(g55
g56
NtRp4593
(dp4594
g59
(dp4595
g67
I3
ssg68
g4589
sg61
(lp4596
S'/admin/default/design/home'
p4597
asbasbasbasbasbasbasbag54
(g70
g56
NtRp4598
(dp4599
g59
(dp4600
sg68
g4485
sg61
(lp4601
g54
(g75
g56
NtRp4602
(dp4603
g59
(dp4604
sg68
g4598
sg61
(lp4605
g54
(g55
g56
NtRp4606
(dp4607
g59
(dp4608
g67
I4
ssg68
g4602
sg61
(lp4609
g54
(g63
g56
NtRp4610
(dp4611
g59
(dp4612
g67
I3
ssg68
Nsg61
(lp4613
g54
(g70
g56
NtRp4614
(dp4615
g59
(dp4616
sg68
g4610
sg61
(lp4617
g54
(g75
g56
NtRp4618
(dp4619
g59
(dp4620
sg68
g4614
sg61
(lp4621
g54
(g55
g56
NtRp4622
(dp4623
g59
(dp4624
g67
I3
ssg68
g4618
sg61
(lp4625
g4517
(S's\x05\x00\x00\x00About'
tRp4626
asbasbasbag54
(g70
g56
NtRp4627
(dp4628
g59
(dp4629
sg68
g4610
sg61
(lp4630
g54
(g75
g56
NtRp4631
(dp4632
g59
(dp4633
sg68
g4627
sg61
(lp4634
g54
(g55
g56
NtRp4635
(dp4636
g59
(dp4637
g67
I3
ssg68
g4631
sg61
(lp4638
g1225
asbasbasbag54
(g70
g56
NtRp4639
(dp4640
g59
(dp4641
sg68
g4610
sg61
(lp4642
g54
(g75
g56
NtRp4643
(dp4644
g59
(dp4645
sg68
g4639
sg61
(lp4646
g54
(g55
g56
NtRp4647
(dp4648
g59
(dp4649
g67
I3
ssg68
g4643
sg61
(lp4650
S'/admin/default/about/home'
p4651
asbasbasbasbasbasbasbag54
(g70
g56
NtRp4652
(dp4653
g59
(dp4654
sg68
g4485
sg61
(lp4655
g54
(g75
g56
NtRp4656
(dp4657
g59
(dp4658
sg68
g4652
sg61
(lp4659
g54
(g55
g56
NtRp4660
(dp4661
g59
(dp4662
g67
I4
ssg68
g4656
sg61
(lp4663
g54
(g63
g56
NtRp4664
(dp4665
g59
(dp4666
g67
I3
ssg68
Nsg61
(lp4667
g54
(g70
g56
NtRp4668
(dp4669
g59
(dp4670
sg68
g4664
sg61
(lp4671
g54
(g75
g56
NtRp4672
(dp4673
g59
(dp4674
sg68
g4668
sg61
(lp4675
g54
(g55
g56
NtRp4676
(dp4677
g59
(dp4678
g67
I3
ssg68
g4672
sg61
(lp4679
g4517
(S's\x06\x00\x00\x00Errors'
tRp4680
asbasbasbag54
(g70
g56
NtRp4681
(dp4682
g59
(dp4683
sg68
g4664
sg61
(lp4684
g54
(g75
g56
NtRp4685
(dp4686
g59
(dp4687
sg68
g4681
sg61
(lp4688
g54
(g55
g56
NtRp4689
(dp4690
g59
(dp4691
g67
I3
ssg68
g4685
sg61
(lp4692
g1225
asbasbasbag54
(g70
g56
NtRp4693
(dp4694
g59
(dp4695
sg68
g4664
sg61
(lp4696
g54
(g75
g56
NtRp4697
(dp4698
g59
(dp4699
sg68
g4693
sg61
(lp4700
g54
(g55
g56
NtRp4701
(dp4702
g59
(dp4703
g67
I3
ssg68
g4697
sg61
(lp4704
S'/admin/default/errors/home'
p4705
asbasbasbasbasbasbasbag54
(g70
g56
NtRp4706
(dp4707
g59
(dp4708
sg68
g4485
sg61
(lp4709
g54
(g75
g56
NtRp4710
(dp4711
g59
(dp4712
sg68
g4706
sg61
(lp4713
g54
(g55
g56
NtRp4714
(dp4715
g59
(dp4716
g67
I4
ssg68
g4710
sg61
(lp4717
g54
(g63
g56
NtRp4718
(dp4719
g59
(dp4720
g67
I3
ssg68
Nsg61
(lp4721
g54
(g70
g56
NtRp4722
(dp4723
g59
(dp4724
sg68
g4718
sg61
(lp4725
g54
(g75
g56
NtRp4726
(dp4727
g59
(dp4728
sg68
g4722
sg61
(lp4729
g54
(g55
g56
NtRp4730
(dp4731
g59
(dp4732
g67
I3
ssg68
g4726
sg61
(lp4733
g4517
(S's\n\x00\x00\x00Versioning'
tRp4734
asbasbasbag54
(g70
g56
NtRp4735
(dp4736
g59
(dp4737
sg68
g4718
sg61
(lp4738
g54
(g75
g56
NtRp4739
(dp4740
g59
(dp4741
sg68
g4735
sg61
(lp4742
g54
(g55
g56
NtRp4743
(dp4744
g59
(dp4745
g67
I3
ssg68
g4739
sg61
(lp4746
g1225
asbasbasbag54
(g70
g56
NtRp4747
(dp4748
g59
(dp4749
sg68
g4718
sg61
(lp4750
g54
(g75
g56
NtRp4751
(dp4752
g59
(dp4753
sg68
g4747
sg61
(lp4754
g54
(g55
g56
NtRp4755
(dp4756
g59
(dp4757
g67
I3
ssg68
g4751
sg61
(lp4758
S'/admin/mercurial/commit/home'
p4759
asbasbasbasbasbasbasbag54
(g70
g56
NtRp4760
(dp4761
g59
(dp4762
sg68
g4485
sg61
(lp4763
g54
(g75
g56
NtRp4764
(dp4765
g59
(dp4766
sg68
g4760
sg61
(lp4767
g54
(g55
g56
NtRp4768
(dp4769
g59
(dp4770
g67
I4
ssg68
g4764
sg61
(lp4771
g54
(g63
g56
NtRp4772
(dp4773
g59
(dp4774
g67
I3
ssg68
Nsg61
(lp4775
g54
(g70
g56
NtRp4776
(dp4777
g59
(dp4778
sg68
g4772
sg61
(lp4779
g54
(g75
g56
NtRp4780
(dp4781
g59
(dp4782
sg68
g4776
sg61
(lp4783
g54
(g55
g56
NtRp4784
(dp4785
g59
(dp4786
g67
I3
ssg68
g4780
sg61
(lp4787
g4517
(S's\x06\x00\x00\x00Logout'
tRp4788
asbasbasbag54
(g70
g56
NtRp4789
(dp4790
g59
(dp4791
sg68
g4772
sg61
(lp4792
g54
(g75
g56
NtRp4793
(dp4794
g59
(dp4795
sg68
g4789
sg61
(lp4796
g54
(g55
g56
NtRp4797
(dp4798
g59
(dp4799
g67
I3
ssg68
g4793
sg61
(lp4800
g1225
asbasbasbag54
(g70
g56
NtRp4801
(dp4802
g59
(dp4803
sg68
g4772
sg61
(lp4804
g54
(g75
g56
NtRp4805
(dp4806
g59
(dp4807
sg68
g4801
sg61
(lp4808
g54
(g55
g56
NtRp4809
(dp4810
g59
(dp4811
g67
I3
ssg68
g4805
sg61
(lp4812
S'/admin/default/logout'
p4813
asbasbasbasbasbasbasbag54
(g70
g56
NtRp4814
(dp4815
g59
(dp4816
sg68
g4485
sg61
(lp4817
g54
(g75
g56
NtRp4818
(dp4819
g59
(dp4820
sg68
g4814
sg61
(lp4821
g54
(g55
g56
NtRp4822
(dp4823
g59
(dp4824
g67
I4
ssg68
g4818
sg61
(lp4825
g54
(g63
g56
NtRp4826
(dp4827
g59
(dp4828
g67
I3
ssg68
Nsg61
(lp4829
g54
(g70
g56
NtRp4830
(dp4831
g59
(dp4832
sg68
g4826
sg61
(lp4833
g54
(g75
g56
NtRp4834
(dp4835
g59
(dp4836
sg68
g4830
sg61
(lp4837
g54
(g55
g56
NtRp4838
(dp4839
g59
(dp4840
g67
I3
ssg68
g4834
sg61
(lp4841
g4517
(S's\x05\x00\x00\x00Debug'
tRp4842
asbasbasbag54
(g70
g56
NtRp4843
(dp4844
g59
(dp4845
sg68
g4826
sg61
(lp4846
g54
(g75
g56
NtRp4847
(dp4848
g59
(dp4849
sg68
g4843
sg61
(lp4850
g54
(g55
g56
NtRp4851
(dp4852
g59
(dp4853
g67
I3
ssg68
g4847
sg61
(lp4854
g1225
asbasbasbag54
(g70
g56
NtRp4855
(dp4856
g59
(dp4857
sg68
g4826
sg61
(lp4858
g54
(g75
g56
NtRp4859
(dp4860
g59
(dp4861
sg68
g4855
sg61
(lp4862
g54
(g55
g56
NtRp4863
(dp4864
g59
(dp4865
g67
I3
ssg68
g4859
sg61
(lp4866
S'/admin/debug/interact'
p4867
asbasbasbasbasbasbasbag54
(g70
g56
NtRp4868
(dp4869
g59
(dp4870
sg68
g4485
sg61
(lp4871
g54
(g75
g56
NtRp4872
(dp4873
g59
(dp4874
sg68
g4868
sg61
(lp4875
g54
(g55
g56
NtRp4876
(dp4877
g59
(dp4878
g67
I4
ssg68
g4872
sg61
(lp4879
g54
(g63
g56
NtRp4880
(dp4881
g59
(dp4882
g67
I3
ssg68
Nsg61
(lp4883
g54
(g70
g56
NtRp4884
(dp4885
g59
(dp4886
sg68
g4880
sg61
(lp4887
g54
(g75
g56
NtRp4888
(dp4889
g59
(dp4890
sg68
g4884
sg61
(lp4891
g54
(g55
g56
NtRp4892
(dp4893
g59
(dp4894
g67
I3
ssg68
g4888
sg61
(lp4895
g4517
(S's\x04\x00\x00\x00Help'
tRp4896
asbasbasbag54
(g70
g56
NtRp4897
(dp4898
g59
(dp4899
sg68
g4880
sg61
(lp4900
g54
(g75
g56
NtRp4901
(dp4902
g59
(dp4903
sg68
g4897
sg61
(lp4904
g54
(g55
g56
NtRp4905
(dp4906
g59
(dp4907
g67
I3
ssg68
g4901
sg61
(lp4908
g1225
asbasbasbag54
(g70
g56
NtRp4909
(dp4910
g59
(dp4911
sg68
g4880
sg61
(lp4912
g54
(g75
g56
NtRp4913
(dp4914
g59
(dp4915
sg68
g4909
sg61
(lp4916
g54
(g55
g56
NtRp4917
(dp4918
g59
(dp4919
g67
I3
ssg68
g4913
sg61
(lp4920
S'/examples/default/index'
p4921
asbasbasbasbasbasbasbasbasbasbasbag54
(g70
g56
NtRp4922
(dp4923
g59
(dp4924
sg68
g4022
sg61
(lp4925
g54
(g75
g56
NtRp4926
(dp4927
g59
(dp4928
g79
g80
ssg68
g4922
sg61
(lp4929
S'meta'
p4930
asbag54
(g75
g56
NtRp4931
(dp4932
g59
(dp4933
g86
g87
ssg68
g4922
sg61
(lp4934
S':'
asbag54
(g75
g56
NtRp4935
(dp4936
g59
(dp4937
sg68
g4922
sg61
(lp4938
g54
(g55
g56
NtRp4939
(dp4940
g59
(dp4941
g67
I5
ssg68
g4935
sg61
(lp4942
g54
(g63
g56
NtRp4943
(dp4944
g59
(dp4945
g67
I4
ssg68
Nsg61
(lp4946
sbasbasbasbag54
(g70
g56
NtRp4947
(dp4948
g59
(dp4949
sg68
g4022
sg61
(lp4950
g54
(g75
g56
NtRp4951
(dp4952
g59
(dp4953
g79
g80
ssg68
g4947
sg61
(lp4954
S'models_to_run'
p4955
asbag54
(g75
g56
NtRp4956
(dp4957
g59
(dp4958
g86
g87
ssg68
g4947
sg61
(lp4959
S':'
asbag54
(g75
g56
NtRp4960
(dp4961
g59
(dp4962
sg68
g4947
sg61
(lp4963
g54
(g55
g56
NtRp4964
(dp4965
g59
(dp4966
g67
I5
ssg68
g4960
sg61
(lp4967
g54
(g63
g56
NtRp4968
(dp4969
g59
(dp4970
g67
I4
ssg68
Nsg61
(lp4971
g54
(g70
g56
NtRp4972
(dp4973
g59
(dp4974
sg68
g4968
sg61
(lp4975
g54
(g75
g56
NtRp4976
(dp4977
g59
(dp4978
sg68
g4972
sg61
(lp4979
g54
(g55
g56
NtRp4980
(dp4981
g59
(dp4982
g67
I4
ssg68
g4976
sg61
(lp4983
S'^\\w+\\.py$'
p4984
asbasbasbag54
(g70
g56
NtRp4985
(dp4986
g59
(dp4987
sg68
g4968
sg61
(lp4988
g54
(g75
g56
NtRp4989
(dp4990
g59
(dp4991
sg68
g4985
sg61
(lp4992
g54
(g55
g56
NtRp4993
(dp4994
g59
(dp4995
g67
I4
ssg68
g4989
sg61
(lp4996
S'^shell/\\w+\\.py$'
p4997
asbasbasbag54
(g70
g56
NtRp4998
(dp4999
g59
(dp5000
sg68
g4968
sg61
(lp5001
g54
(g75
g56
NtRp5002
(dp5003
g59
(dp5004
sg68
g4998
sg61
(lp5005
g54
(g55
g56
NtRp5006
(dp5007
g59
(dp5008
g67
I4
ssg68
g5002
sg61
(lp5009
S'^shell/callback/\\w+\\.py$'
p5010
asbasbasbasbasbasbasbag54
(g70
g56
NtRp5011
(dp5012
g59
(dp5013
sg68
g4022
sg61
(lp5014
g54
(g75
g56
NtRp5015
(dp5016
g59
(dp5017
g79
g80
ssg68
g5011
sg61
(lp5018
S'postprocessing'
p5019
asbag54
(g75
g56
NtRp5020
(dp5021
g59
(dp5022
g86
g87
ssg68
g5011
sg61
(lp5023
S':'
asbag54
(g75
g56
NtRp5024
(dp5025
g59
(dp5026
sg68
g5011
sg61
(lp5027
g54
(g55
g56
NtRp5028
(dp5029
g59
(dp5030
g67
I5
ssg68
g5024
sg61
(lp5031
g54
(g63
g56
NtRp5032
(dp5033
g59
(dp5034
g67
I4
ssg68
Nsg61
(lp5035
sbasbasbasbag54
(g70
g56
NtRp5036
(dp5037
g59
(dp5038
sg68
g4022
sg61
(lp5039
g54
(g75
g56
NtRp5040
(dp5041
g59
(dp5042
g79
g80
ssg68
g5036
sg61
(lp5043
S'session_file'
p5044
asbag54
(g75
g56
NtRp5045
(dp5046
g59
(dp5047
g86
g87
ssg68
g5036
sg61
(lp5048
S':'
asbag54
(g75
g56
NtRp5049
(dp5050
g59
(dp5051
sg68
g5036
sg61
(lp5052
g54
(g55
g56
NtRp5053
(dp5054
g59
(dp5055
g67
I5
ssg68
g5049
sg61
(lp5056
S"<open file 'D:\\home\\dev\\python\\web2py\\applications\\admin\\sessions\\127.0.0.1-a3cb7328-1114-4610-8fd0-fd9c96816f71', mode 'rb+' at 0x03E9C5A0>"
p5057
asbasbasbag54
(g70
g56
NtRp5058
(dp5059
g59
(dp5060
sg68
g4022
sg61
(lp5061
g54
(g75
g56
NtRp5062
(dp5063
g59
(dp5064
g79
g80
ssg68
g5058
sg61
(lp5065
S'session_filename'
p5066
asbag54
(g75
g56
NtRp5067
(dp5068
g59
(dp5069
g86
g87
ssg68
g5058
sg61
(lp5070
S':'
asbag54
(g75
g56
NtRp5071
(dp5072
g59
(dp5073
sg68
g5058
sg61
(lp5074
g54
(g55
g56
NtRp5075
(dp5076
g59
(dp5077
g67
I5
ssg68
g5071
sg61
(lp5078
S'D:\\home\\dev\\python\\web2py\\applications\\admin\\sessions\\127.0.0.1-a3cb7328-1114-4610-8fd0-fd9c96816f71'
p5079
asbasbasbag54
(g70
g56
NtRp5080
(dp5081
g59
(dp5082
sg68
g4022
sg61
(lp5083
g54
(g75
g56
NtRp5084
(dp5085
g59
(dp5086
g79
g80
ssg68
g5080
sg61
(lp5087
S'session_id'
p5088
asbag54
(g75
g56
NtRp5089
(dp5090
g59
(dp5091
g86
g87
ssg68
g5080
sg61
(lp5092
S':'
asbag54
(g75
g56
NtRp5093
(dp5094
g59
(dp5095
sg68
g5080
sg61
(lp5096
g54
(g55
g56
NtRp5097
(dp5098
g59
(dp5099
g67
I5
ssg68
g5093
sg61
(lp5100
g485
asbasbasbag54
(g70
g56
NtRp5101
(dp5102
g59
(dp5103
sg68
g4022
sg61
(lp5104
g54
(g75
g56
NtRp5105
(dp5106
g59
(dp5107
g79
g80
ssg68
g5101
sg61
(lp5108
S'session_id_name'
p5109
asbag54
(g75
g56
NtRp5110
(dp5111
g59
(dp5112
g86
g87
ssg68
g5101
sg61
(lp5113
S':'
asbag54
(g75
g56
NtRp5114
(dp5115
g59
(dp5116
sg68
g5101
sg61
(lp5117
g54
(g55
g56
NtRp5118
(dp5119
g59
(dp5120
g67
I5
ssg68
g5114
sg61
(lp5121
g4079
asbasbasbag54
(g70
g56
NtRp5122
(dp5123
g59
(dp5124
sg68
g4022
sg61
(lp5125
g54
(g75
g56
NtRp5126
(dp5127
g59
(dp5128
g79
g80
ssg68
g5122
sg61
(lp5129
S'session_locked'
p5130
asbag54
(g75
g56
NtRp5131
(dp5132
g59
(dp5133
g86
g87
ssg68
g5122
sg61
(lp5134
S':'
asbag54
(g75
g56
NtRp5135
(dp5136
g59
(dp5137
sg68
g5122
sg61
(lp5138
g54
(g55
g56
NtRp5139
(dp5140
g59
(dp5141
g67
I5
ssg68
g5135
sg61
(lp5142
g97
asbasbasbag54
(g70
g56
NtRp5143
(dp5144
g59
(dp5145
sg68
g4022
sg61
(lp5146
g54
(g75
g56
NtRp5147
(dp5148
g59
(dp5149
g79
g80
ssg68
g5143
sg61
(lp5150
S'session_new'
p5151
asbag54
(g75
g56
NtRp5152
(dp5153
g59
(dp5154
g86
g87
ssg68
g5143
sg61
(lp5155
S':'
asbag54
(g75
g56
NtRp5156
(dp5157
g59
(dp5158
sg68
g5143
sg61
(lp5159
g54
(g55
g56
NtRp5160
(dp5161
g59
(dp5162
g67
I5
ssg68
g5156
sg61
(lp5163
g1225
asbasbasbag54
(g70
g56
NtRp5164
(dp5165
g59
(dp5166
sg68
g4022
sg61
(lp5167
g54
(g75
g56
NtRp5168
(dp5169
g59
(dp5170
g79
g80
ssg68
g5164
sg61
(lp5171
S'status'
p5172
asbag54
(g75
g56
NtRp5173
(dp5174
g59
(dp5175
g86
g87
ssg68
g5164
sg61
(lp5176
S':'
asbag54
(g75
g56
NtRp5177
(dp5178
g59
(dp5179
sg68
g5164
sg61
(lp5180
g54
(g55
g56
NtRp5181
(dp5182
g59
(dp5183
g67
I5
ssg68
g5177
sg61
(lp5184
S'200'
p5185
asbasbasbag54
(g70
g56
NtRp5186
(dp5187
g59
(dp5188
sg68
g4022
sg61
(lp5189
g54
(g75
g56
NtRp5190
(dp5191
g59
(dp5192
g79
g80
ssg68
g5186
sg61
(lp5193
S'subtitle'
p5194
asbag54
(g75
g56
NtRp5195
(dp5196
g59
(dp5197
g86
g87
ssg68
g5186
sg61
(lp5198
S':'
asbag54
(g75
g56
NtRp5199
(dp5200
g59
(dp5201
sg68
g5186
sg61
(lp5202
g54
(g55
g56
NtRp5203
(dp5204
g59
(dp5205
g67
I5
ssg68
g5199
sg61
(lp5206
S'admin'
p5207
asbasbasbag54
(g70
g56
NtRp5208
(dp5209
g59
(dp5210
sg68
g4022
sg61
(lp5211
g54
(g75
g56
NtRp5212
(dp5213
g59
(dp5214
g79
g80
ssg68
g5208
sg61
(lp5215
S'title'
p5216
asbag54
(g75
g56
NtRp5217
(dp5218
g59
(dp5219
g86
g87
ssg68
g5208
sg61
(lp5220
S':'
asbag54
(g75
g56
NtRp5221
(dp5222
g59
(dp5223
sg68
g5208
sg61
(lp5224
g54
(g55
g56
NtRp5225
(dp5226
g59
(dp5227
g67
I5
ssg68
g5221
sg61
(lp5228
S'callback home'
p5229
asbasbasbag54
(g70
g56
NtRp5230
(dp5231
g59
(dp5232
sg68
g4022
sg61
(lp5233
g54
(g75
g56
NtRp5234
(dp5235
g59
(dp5236
g79
g80
ssg68
g5230
sg61
(lp5237
S'view'
p5238
asbag54
(g75
g56
NtRp5239
(dp5240
g59
(dp5241
g86
g87
ssg68
g5230
sg61
(lp5242
S':'
asbag54
(g75
g56
NtRp5243
(dp5244
g59
(dp5245
sg68
g5230
sg61
(lp5246
g54
(g55
g56
NtRp5247
(dp5248
g59
(dp5249
g67
I5
ssg68
g5243
sg61
(lp5250
S'shell/callback.html'
p5251
asbasbasbasbasbsS'locals'
p5252
(dp5253
S'a'
S"'home'"
p5254
sS'extra_request'
p5255
g17
sS'c'
S'None'
p5256
sS'e'
S'RestrictedError()'
p5257
sS'f'
S'None'
p5258
sS'check_credentials'
p5259
S'<function check_credentials>'
p5260
sg53
S"<Storage {'function': 'index', 'is_local': False... 11, 39, 13, 935000), 'post_vars': <Storage {}>}>"
p5261
sg4017
S"<Storage {'status': 200, 'body': <cStringIO.Stri...3EA8CB0>, 'files': [], '_custom_rollback': None}>"
p5262
sS'environment'
p5263
S"{'A': <class 'gluon.html.A'>, 'Auth': <class 'gluon.tools.Auth'>, 'B': <class 'gluon.html.B'>, 'BEAUTIFY': <class 'gluon.html.BEAUTIFY'>, 'BODY': <class 'gluon.html.BODY'>, 'BR': <class 'gluon.html.BR'>, 'BUTTON': <class 'gluon.html.BUTTON'>, 'CAT': <class 'gluon.html.CAT'>, 'CENTER': <class 'gluon.html.CENTER'>, 'CLEANUP': <class 'gluon.validators.CLEANUP'>, ...}"
p5264
sg3815
S"<Storage {'auth': None}>"
p5265
sS'import_models'
p5266
g97
sS'dir'
p5267
S"''"
p5268
sssS'traceback'
p5269
S'Traceback (most recent call last):\n  File "D:\\home\\dev\\python\\web2py\\gluon\\main.py", line 514, in wsgibase\n    serve_controller(request, response, session)\n  File "D:\\home\\dev\\python\\web2py\\gluon\\main.py", line 218, in serve_controller\n    page = run_controller_in(request.controller, request.function, environment)\n  File "D:\\home\\dev\\python\\web2py\\gluon\\compileapp.py", line 578, in run_controller_in\n    restricted(code, environment, filename)\n  File "D:\\home\\dev\\python\\web2py\\gluon\\restricted.py", line 209, in restricted\n    exec ccode in environment\n  File "D:\\home\\dev\\python\\web2py\\applications\\admin\\controllers/shell.py", line 49, in <module>\n  File "D:\\home\\dev\\python\\web2py\\gluon\\globals.py", line 186, in <lambda>\n    self._caller = lambda f: f()\n  File "D:\\home\\dev\\python\\web2py\\applications\\admin\\controllers/shell.py", line 34, in callback\n    environ=env(app,True)\n  File "D:\\home\\dev\\python\\web2py\\gluon\\shell.py", line 134, in env\n    sys.exit(1)\nSystemExit: 1\n'
p5270
s.