(dp1
S'first_name'
p2
(dp3
S'type'
p4
S'string'
p5
sS'sortable'
p6
I2
sS'sql'
p7
S'CHAR(512)'
p8
ssS'last_name'
p9
(dp10
g4
g5
sg6
I3
sg7
S'CHAR(512)'
p11
ssS'id'
p12
(dp13
g4
g12
sg6
I1
sg7
S'INTEGER PRIMARY KEY AUTOINCREMENT'
p14
ss.