(dp1
S'round_id'
p2
(dp3
S'type'
p4
S'integer'
p5
sS'sortable'
p6
I3
sS'sql'
p7
S'INTEGER'
p8
ssS'score'
p9
(dp10
g4
g5
sg6
I2
sg7
S'INTEGER'
p11
ssS'id'
p12
(dp13
g4
g12
sg6
I1
sg7
S'INTEGER PRIMARY KEY AUTOINCREMENT'
p14
ss.