(dp1
S'shooter_id'
p2
(dp3
S'type'
p4
S'integer'
p5
sS'sortable'
p6
I2
sS'sql'
p7
S'INTEGER'
p8
ssS'timestamp'
p9
(dp10
g4
S'datetime'
p11
sg6
I3
sg7
S'TIMESTAMP'
p12
ssS'target_distance'
p13
(dp14
g4
g5
sg6
I6
sg7
S'INTEGER'
p15
ssS'target_size'
p16
(dp17
g4
g5
sg6
I5
sg7
S'INTEGER'
p18
ssS'weapon_type_id'
p19
(dp20
g4
g5
sg6
I4
sg7
S'INTEGER'
p21
ssS'id'
p22
(dp23
g4
g22
sg6
I1
sg7
S'INTEGER PRIMARY KEY AUTOINCREMENT'
p24
ssS'round_size'
p25
(dp26
g4
g5
sg6
I7
sg7
S'INTEGER'
p27
ss.